---
triple:          'x86_64-apple-darwin'
binary-path:     api_parser
relocations:
  - { offset: 0x3F, size: 0x8, addend: 0x0, symName: _astRoot, symObjAddr: 0x9EAA8, symBinAddr: 0x100017008, symSize: 0x0 }
  - { offset: 0x109B8, size: 0x8, addend: 0x0, symName: __ZNSt3__124__put_character_sequenceB8ne180100IcNS_11char_traitsIcEEEERNS_13basic_ostreamIT_T0_EES7_PKS4_m, symObjAddr: 0xD120, symBinAddr: 0x10000E760, symSize: 0x1F0 }
  - { offset: 0x11A34, size: 0x8, addend: 0x0, symName: __ZNSt3__19make_pairB8ne180100I16HTTPResponseCodeNS_6vectorINS_10unique_ptrI8TypeExprNS_14default_deleteIS4_EEEENS_9allocatorIS7_EEEEEENS_4pairINS_18__unwrap_ref_decayIT_E4typeENSC_IT0_E4typeEEEOSD_OSG_, symObjAddr: 0x24E0, symBinAddr: 0x100003B20, symSize: 0x40 }
  - { offset: 0x11A83, size: 0x8, addend: 0x0, symName: __ZNSt3__1lsB8ne180100INS_11char_traitsIcEEEERNS_13basic_ostreamIcT_EES6_PKc, symObjAddr: 0x2BA0, symBinAddr: 0x1000041E0, symSize: 0x40 }
  - { offset: 0x11AC9, size: 0x8, addend: 0x0, symName: __ZNSt3__14endlB8ne180100IcNS_11char_traitsIcEEEERNS_13basic_ostreamIT_T0_EES7_, symObjAddr: 0x2C00, symBinAddr: 0x100004240, symSize: 0x50 }
  - { offset: 0x11B09, size: 0x8, addend: 0x0, symName: __ZNSt3__111make_uniqueB8ne180100I9TypeConstJRKNS_12basic_stringIcNS_11char_traitsIcEENS_9allocatorIcEEEEEEENS_11__unique_ifIT_E15__unique_singleEDpOT0_, symObjAddr: 0x3580, symBinAddr: 0x100004BC0, symSize: 0xD0 }
  - { offset: 0x11B4B, size: 0x8, addend: 0x0, symName: __ZNSt3__112__to_addressB8ne180100INS_10unique_ptrI8TypeExprNS_14default_deleteIS2_EEEEEEPT_S7_, symObjAddr: 0x5010, symBinAddr: 0x100006650, symSize: 0x10 }
  - { offset: 0x11B80, size: 0x8, addend: 0x0, symName: __ZNSt3__119__libcpp_deallocateB8ne180100EPvmm, symObjAddr: 0x5080, symBinAddr: 0x1000066C0, symSize: 0x30 }
  - { offset: 0x11BC8, size: 0x8, addend: 0x0, symName: __ZNSt3__127__do_deallocate_handle_sizeB8ne180100IJEEEvPvmDpT_, symObjAddr: 0x50B0, symBinAddr: 0x1000066F0, symSize: 0x20 }
  - { offset: 0x11C06, size: 0x8, addend: 0x0, symName: __ZNSt3__124__libcpp_operator_deleteB8ne180100IJPvEEEvDpT_, symObjAddr: 0x50D0, symBinAddr: 0x100006710, symSize: 0x20 }
  - { offset: 0x11C3B, size: 0x8, addend: 0x0, symName: __ZNSt3__13maxB8ne180100ImEERKT_S3_S3_, symObjAddr: 0x5780, symBinAddr: 0x100006DC0, symSize: 0x30 }
  - { offset: 0x11C7E, size: 0x8, addend: 0x0, symName: __ZNSt3__13minB8ne180100ImEERKT_S3_S3_, symObjAddr: 0x57B0, symBinAddr: 0x100006DF0, symSize: 0x30 }
  - { offset: 0x11EC2, size: 0x8, addend: 0x0, symName: __ZNSt3__13minB8ne180100ImNS_6__lessIvvEEEERKT_S5_S5_T0_, symObjAddr: 0x5830, symBinAddr: 0x100006E70, symSize: 0x50 }
  - { offset: 0x11F61, size: 0x8, addend: 0x0, symName: __ZNSt3__120__throw_length_errorB8ne180100EPKc, symObjAddr: 0x5910, symBinAddr: 0x100006F50, symSize: 0x70 }
  - { offset: 0x11F89, size: 0x8, addend: 0x0, symName: __ZNSt3__13maxB8ne180100ImNS_6__lessIvvEEEERKT_S5_S5_T0_, symObjAddr: 0x59F0, symBinAddr: 0x100007030, symSize: 0x50 }
  - { offset: 0x11FE3, size: 0x8, addend: 0x0, symName: __ZNSt3__119__allocate_at_leastB8ne180100INS_9allocatorINS_10unique_ptrI8TypeExprNS_14default_deleteIS3_EEEEEEEENS_19__allocation_resultINS_16allocator_traitsIT_E7pointerEEERSA_m, symObjAddr: 0x5B40, symBinAddr: 0x100007180, symSize: 0x40 }
  - { offset: 0x12026, size: 0x8, addend: 0x0, symName: __ZNSt3__117__libcpp_allocateB8ne180100Emm, symObjAddr: 0x5CB0, symBinAddr: 0x1000072F0, symSize: 0x20 }
  - { offset: 0x12063, size: 0x8, addend: 0x0, symName: __ZNSt3__121__libcpp_operator_newB8ne180100IJmEEEPvDpT_, symObjAddr: 0x5CD0, symBinAddr: 0x100007310, symSize: 0x20 }
  - { offset: 0x1209C, size: 0x8, addend: 0x0, symName: __ZNSt3__142__uninitialized_allocator_move_if_noexceptB8ne180100INS_9allocatorINS_10unique_ptrI8TypeExprNS_14default_deleteIS3_EEEEEENS_16reverse_iteratorIPS6_EESA_SA_EET2_RT_T0_T1_SB_, symObjAddr: 0x5D50, symBinAddr: 0x100007390, symSize: 0x180 }
  - { offset: 0x1213B, size: 0x8, addend: 0x0, symName: __ZNSt3__14swapB8ne180100IPNS_10unique_ptrI8TypeExprNS_14default_deleteIS2_EEEEEENS_9enable_ifIXaasr21is_move_constructibleIT_EE5valuesr18is_move_assignableIS8_EE5valueEvE4typeERS8_SB_, symObjAddr: 0x5F20, symBinAddr: 0x100007560, symSize: 0x40 }
  - { offset: 0x1218C, size: 0x8, addend: 0x0, symName: __ZNSt3__122__make_exception_guardB8ne180100INS_29_AllocatorDestroyRangeReverseINS_9allocatorINS_10unique_ptrI8TypeExprNS_14default_deleteIS4_EEEEEENS_16reverse_iteratorIPS7_EEEEEENS_28__exception_guard_exceptionsIT_EESE_, symObjAddr: 0x5F70, symBinAddr: 0x1000075B0, symSize: 0x60 }
  - { offset: 0x121C1, size: 0x8, addend: 0x0, symName: __ZNSt3__1neB8ne180100IPNS_10unique_ptrI8TypeExprNS_14default_deleteIS2_EEEES6_EEbRKNS_16reverse_iteratorIT_EERKNS7_IT0_EE, symObjAddr: 0x6010, symBinAddr: 0x100007650, symSize: 0x40 }
  - { offset: 0x1220D, size: 0x8, addend: 0x0, symName: __ZNSt3__112__to_addressB8ne180100INS_16reverse_iteratorIPNS_10unique_ptrI8TypeExprNS_14default_deleteIS3_EEEEEEvEEu7__decayIDTclsr19__to_address_helperIT_EE6__callclsr3stdE7declvalIRKS9_EEEEESB_, symObjAddr: 0x6050, symBinAddr: 0x100007690, symSize: 0x20 }
  - { offset: 0x1226C, size: 0x8, addend: 0x0, symName: __ZNSt3__119__allocator_destroyB8ne180100INS_9allocatorINS_10unique_ptrI8TypeExprNS_14default_deleteIS3_EEEEEENS_16reverse_iteratorINS8_IPS6_EEEESB_EEvRT_T0_T1_, symObjAddr: 0x6340, symBinAddr: 0x100007980, symSize: 0x70 }
  - { offset: 0x122CF, size: 0x8, addend: 0x0, symName: __ZNSt3__1neB8ne180100INS_16reverse_iteratorIPNS_10unique_ptrI8TypeExprNS_14default_deleteIS3_EEEEEES8_EEbRKNS1_IT_EERKNS1_IT0_EE, symObjAddr: 0x63E0, symBinAddr: 0x100007A20, symSize: 0x50 }
  - { offset: 0x1231B, size: 0x8, addend: 0x0, symName: __ZNSt3__112__to_addressB8ne180100INS_16reverse_iteratorINS1_IPNS_10unique_ptrI8TypeExprNS_14default_deleteIS3_EEEEEEEEvEEu7__decayIDTclsr19__to_address_helperIT_EE6__callclsr3stdE7declvalIRKSA_EEEEESC_, symObjAddr: 0x6430, symBinAddr: 0x100007A70, symSize: 0x20 }
  - { offset: 0x1237A, size: 0x8, addend: 0x0, symName: __ZNSt3__112__to_addressB8ne180100INS_10unique_ptrI4ExprNS_14default_deleteIS2_EEEEEEPT_S7_, symObjAddr: 0x69D0, symBinAddr: 0x100008010, symSize: 0x10 }
  - { offset: 0x123AF, size: 0x8, addend: 0x0, symName: __ZNSt3__112__to_addressB8ne180100INS_10unique_ptrI4DeclNS_14default_deleteIS2_EEEEEEPT_S7_, symObjAddr: 0x77E0, symBinAddr: 0x100008E20, symSize: 0x10 }
  - { offset: 0x123E4, size: 0x8, addend: 0x0, symName: __ZNSt3__112__to_addressB8ne180100INS_10unique_ptrI4InitNS_14default_deleteIS2_EEEEEEPT_S7_, symObjAddr: 0x7AF0, symBinAddr: 0x100009130, symSize: 0x10 }
  - { offset: 0x12419, size: 0x8, addend: 0x0, symName: __ZNSt3__112__to_addressB8ne180100INS_10unique_ptrI8FuncDeclNS_14default_deleteIS2_EEEEEEPT_S7_, symObjAddr: 0x7FA0, symBinAddr: 0x1000095E0, symSize: 0x10 }
  - { offset: 0x1244E, size: 0x8, addend: 0x0, symName: __ZNSt3__112__to_addressB8ne180100INS_10unique_ptrI3APINS_14default_deleteIS2_EEEEEEPT_S7_, symObjAddr: 0x82B0, symBinAddr: 0x1000098F0, symSize: 0x10 }
  - { offset: 0x12483, size: 0x8, addend: 0x0, symName: __ZNSt3__119__allocate_at_leastB8ne180100INS_9allocatorINS_10unique_ptrI4DeclNS_14default_deleteIS3_EEEEEEEENS_19__allocation_resultINS_16allocator_traitsIT_E7pointerEEERSA_m, symObjAddr: 0x9210, symBinAddr: 0x10000A850, symSize: 0x40 }
  - { offset: 0x124C6, size: 0x8, addend: 0x0, symName: __ZNSt3__142__uninitialized_allocator_move_if_noexceptB8ne180100INS_9allocatorINS_10unique_ptrI4DeclNS_14default_deleteIS3_EEEEEENS_16reverse_iteratorIPS6_EESA_SA_EET2_RT_T0_T1_SB_, symObjAddr: 0x93A0, symBinAddr: 0x10000A9E0, symSize: 0x180 }
  - { offset: 0x12565, size: 0x8, addend: 0x0, symName: __ZNSt3__14swapB8ne180100IPNS_10unique_ptrI4DeclNS_14default_deleteIS2_EEEEEENS_9enable_ifIXaasr21is_move_constructibleIT_EE5valuesr18is_move_assignableIS8_EE5valueEvE4typeERS8_SB_, symObjAddr: 0x9570, symBinAddr: 0x10000ABB0, symSize: 0x40 }
  - { offset: 0x125B6, size: 0x8, addend: 0x0, symName: __ZNSt3__122__make_exception_guardB8ne180100INS_29_AllocatorDestroyRangeReverseINS_9allocatorINS_10unique_ptrI4DeclNS_14default_deleteIS4_EEEEEENS_16reverse_iteratorIPS7_EEEEEENS_28__exception_guard_exceptionsIT_EESE_, symObjAddr: 0x95C0, symBinAddr: 0x10000AC00, symSize: 0x60 }
  - { offset: 0x125EB, size: 0x8, addend: 0x0, symName: __ZNSt3__1neB8ne180100IPNS_10unique_ptrI4DeclNS_14default_deleteIS2_EEEES6_EEbRKNS_16reverse_iteratorIT_EERKNS7_IT0_EE, symObjAddr: 0x9660, symBinAddr: 0x10000ACA0, symSize: 0x40 }
  - { offset: 0x12637, size: 0x8, addend: 0x0, symName: __ZNSt3__112__to_addressB8ne180100INS_16reverse_iteratorIPNS_10unique_ptrI4DeclNS_14default_deleteIS3_EEEEEEvEEu7__decayIDTclsr19__to_address_helperIT_EE6__callclsr3stdE7declvalIRKS9_EEEEESB_, symObjAddr: 0x96A0, symBinAddr: 0x10000ACE0, symSize: 0x20 }
  - { offset: 0x12696, size: 0x8, addend: 0x0, symName: __ZNSt3__119__allocator_destroyB8ne180100INS_9allocatorINS_10unique_ptrI4DeclNS_14default_deleteIS3_EEEEEENS_16reverse_iteratorINS8_IPS6_EEEESB_EEvRT_T0_T1_, symObjAddr: 0x9990, symBinAddr: 0x10000AFD0, symSize: 0x70 }
  - { offset: 0x126F9, size: 0x8, addend: 0x0, symName: __ZNSt3__1neB8ne180100INS_16reverse_iteratorIPNS_10unique_ptrI4DeclNS_14default_deleteIS3_EEEEEES8_EEbRKNS1_IT_EERKNS1_IT0_EE, symObjAddr: 0x9A30, symBinAddr: 0x10000B070, symSize: 0x50 }
  - { offset: 0x12745, size: 0x8, addend: 0x0, symName: __ZNSt3__112__to_addressB8ne180100INS_16reverse_iteratorINS1_IPNS_10unique_ptrI4DeclNS_14default_deleteIS3_EEEEEEEEvEEu7__decayIDTclsr19__to_address_helperIT_EE6__callclsr3stdE7declvalIRKSA_EEEEESC_, symObjAddr: 0x9A80, symBinAddr: 0x10000B0C0, symSize: 0x20 }
  - { offset: 0x127A4, size: 0x8, addend: 0x0, symName: __ZNSt3__119__allocate_at_leastB8ne180100INS_9allocatorINS_10unique_ptrI8FuncDeclNS_14default_deleteIS3_EEEEEEEENS_19__allocation_resultINS_16allocator_traitsIT_E7pointerEEERSA_m, symObjAddr: 0xA890, symBinAddr: 0x10000BED0, symSize: 0x40 }
  - { offset: 0x127E7, size: 0x8, addend: 0x0, symName: __ZNSt3__142__uninitialized_allocator_move_if_noexceptB8ne180100INS_9allocatorINS_10unique_ptrI8FuncDeclNS_14default_deleteIS3_EEEEEENS_16reverse_iteratorIPS6_EESA_SA_EET2_RT_T0_T1_SB_, symObjAddr: 0xAA20, symBinAddr: 0x10000C060, symSize: 0x180 }
  - { offset: 0x12886, size: 0x8, addend: 0x0, symName: __ZNSt3__14swapB8ne180100IPNS_10unique_ptrI8FuncDeclNS_14default_deleteIS2_EEEEEENS_9enable_ifIXaasr21is_move_constructibleIT_EE5valuesr18is_move_assignableIS8_EE5valueEvE4typeERS8_SB_, symObjAddr: 0xABF0, symBinAddr: 0x10000C230, symSize: 0x40 }
  - { offset: 0x128D7, size: 0x8, addend: 0x0, symName: __ZNSt3__122__make_exception_guardB8ne180100INS_29_AllocatorDestroyRangeReverseINS_9allocatorINS_10unique_ptrI8FuncDeclNS_14default_deleteIS4_EEEEEENS_16reverse_iteratorIPS7_EEEEEENS_28__exception_guard_exceptionsIT_EESE_, symObjAddr: 0xAC40, symBinAddr: 0x10000C280, symSize: 0x60 }
  - { offset: 0x1290C, size: 0x8, addend: 0x0, symName: __ZNSt3__1neB8ne180100IPNS_10unique_ptrI8FuncDeclNS_14default_deleteIS2_EEEES6_EEbRKNS_16reverse_iteratorIT_EERKNS7_IT0_EE, symObjAddr: 0xACE0, symBinAddr: 0x10000C320, symSize: 0x40 }
  - { offset: 0x12958, size: 0x8, addend: 0x0, symName: __ZNSt3__112__to_addressB8ne180100INS_16reverse_iteratorIPNS_10unique_ptrI8FuncDeclNS_14default_deleteIS3_EEEEEEvEEu7__decayIDTclsr19__to_address_helperIT_EE6__callclsr3stdE7declvalIRKS9_EEEEESB_, symObjAddr: 0xAD20, symBinAddr: 0x10000C360, symSize: 0x20 }
  - { offset: 0x129B7, size: 0x8, addend: 0x0, symName: __ZNSt3__119__allocator_destroyB8ne180100INS_9allocatorINS_10unique_ptrI8FuncDeclNS_14default_deleteIS3_EEEEEENS_16reverse_iteratorINS8_IPS6_EEEESB_EEvRT_T0_T1_, symObjAddr: 0xB010, symBinAddr: 0x10000C650, symSize: 0x70 }
  - { offset: 0x12A1A, size: 0x8, addend: 0x0, symName: __ZNSt3__1neB8ne180100INS_16reverse_iteratorIPNS_10unique_ptrI8FuncDeclNS_14default_deleteIS3_EEEEEES8_EEbRKNS1_IT_EERKNS1_IT0_EE, symObjAddr: 0xB0B0, symBinAddr: 0x10000C6F0, symSize: 0x50 }
  - { offset: 0x12A66, size: 0x8, addend: 0x0, symName: __ZNSt3__112__to_addressB8ne180100INS_16reverse_iteratorINS1_IPNS_10unique_ptrI8FuncDeclNS_14default_deleteIS3_EEEEEEEEvEEu7__decayIDTclsr19__to_address_helperIT_EE6__callclsr3stdE7declvalIRKSA_EEEEESC_, symObjAddr: 0xB100, symBinAddr: 0x10000C740, symSize: 0x20 }
  - { offset: 0x12AC5, size: 0x8, addend: 0x0, symName: __ZNSt3__119__allocate_at_leastB8ne180100INS_9allocatorINS_10unique_ptrI3APINS_14default_deleteIS3_EEEEEEEENS_19__allocation_resultINS_16allocator_traitsIT_E7pointerEEERSA_m, symObjAddr: 0xBF10, symBinAddr: 0x10000D550, symSize: 0x40 }
  - { offset: 0x12B08, size: 0x8, addend: 0x0, symName: __ZNSt3__142__uninitialized_allocator_move_if_noexceptB8ne180100INS_9allocatorINS_10unique_ptrI3APINS_14default_deleteIS3_EEEEEENS_16reverse_iteratorIPS6_EESA_SA_EET2_RT_T0_T1_SB_, symObjAddr: 0xC0A0, symBinAddr: 0x10000D6E0, symSize: 0x180 }
  - { offset: 0x12BA7, size: 0x8, addend: 0x0, symName: __ZNSt3__14swapB8ne180100IPNS_10unique_ptrI3APINS_14default_deleteIS2_EEEEEENS_9enable_ifIXaasr21is_move_constructibleIT_EE5valuesr18is_move_assignableIS8_EE5valueEvE4typeERS8_SB_, symObjAddr: 0xC270, symBinAddr: 0x10000D8B0, symSize: 0x40 }
  - { offset: 0x12BF8, size: 0x8, addend: 0x0, symName: __ZNSt3__122__make_exception_guardB8ne180100INS_29_AllocatorDestroyRangeReverseINS_9allocatorINS_10unique_ptrI3APINS_14default_deleteIS4_EEEEEENS_16reverse_iteratorIPS7_EEEEEENS_28__exception_guard_exceptionsIT_EESE_, symObjAddr: 0xC2C0, symBinAddr: 0x10000D900, symSize: 0x60 }
  - { offset: 0x12C2D, size: 0x8, addend: 0x0, symName: __ZNSt3__1neB8ne180100IPNS_10unique_ptrI3APINS_14default_deleteIS2_EEEES6_EEbRKNS_16reverse_iteratorIT_EERKNS7_IT0_EE, symObjAddr: 0xC360, symBinAddr: 0x10000D9A0, symSize: 0x40 }
  - { offset: 0x12C79, size: 0x8, addend: 0x0, symName: __ZNSt3__112__to_addressB8ne180100INS_16reverse_iteratorIPNS_10unique_ptrI3APINS_14default_deleteIS3_EEEEEEvEEu7__decayIDTclsr19__to_address_helperIT_EE6__callclsr3stdE7declvalIRKS9_EEEEESB_, symObjAddr: 0xC3A0, symBinAddr: 0x10000D9E0, symSize: 0x20 }
  - { offset: 0x12CD8, size: 0x8, addend: 0x0, symName: __ZNSt3__119__allocator_destroyB8ne180100INS_9allocatorINS_10unique_ptrI3APINS_14default_deleteIS3_EEEEEENS_16reverse_iteratorINS8_IPS6_EEEESB_EEvRT_T0_T1_, symObjAddr: 0xC690, symBinAddr: 0x10000DCD0, symSize: 0x70 }
  - { offset: 0x12D3B, size: 0x8, addend: 0x0, symName: __ZNSt3__1neB8ne180100INS_16reverse_iteratorIPNS_10unique_ptrI3APINS_14default_deleteIS3_EEEEEES8_EEbRKNS1_IT_EERKNS1_IT0_EE, symObjAddr: 0xC730, symBinAddr: 0x10000DD70, symSize: 0x50 }
  - { offset: 0x12D87, size: 0x8, addend: 0x0, symName: __ZNSt3__112__to_addressB8ne180100INS_16reverse_iteratorINS1_IPNS_10unique_ptrI3APINS_14default_deleteIS3_EEEEEEEEvEEu7__decayIDTclsr19__to_address_helperIT_EE6__callclsr3stdE7declvalIRKSA_EEEEESC_, symObjAddr: 0xC780, symBinAddr: 0x10000DDC0, symSize: 0x20 }
  - { offset: 0x12DE6, size: 0x8, addend: 0x0, symName: __ZNSt3__118__constexpr_strlenB8ne180100EPKc, symObjAddr: 0xCD50, symBinAddr: 0x10000E390, symSize: 0x20 }
  - { offset: 0x12E12, size: 0x8, addend: 0x0, symName: __ZNSt3__116__pad_and_outputB8ne180100IcNS_11char_traitsIcEEEENS_19ostreambuf_iteratorIT_T0_EES6_PKS4_S8_S8_RNS_8ios_baseES4_, symObjAddr: 0xD330, symBinAddr: 0x10000E970, symSize: 0x220 }
  - { offset: 0x12EE2, size: 0x8, addend: 0x0, symName: __ZNSt3__112__to_addressB8ne180100IKcEEPT_S3_, symObjAddr: 0xD790, symBinAddr: 0x10000EDD0, symSize: 0x10 }
  - { offset: 0x12F4A, size: 0x8, addend: 0x0, symName: __ZNSt3__19use_facetB8ne180100INS_5ctypeIcEEEERKT_RKNS_6localeE, symObjAddr: 0xD990, symBinAddr: 0x10000EFD0, symSize: 0x30 }
  - { offset: 0x14753, size: 0x8, addend: 0x0, symName: __ZSt28__throw_bad_array_new_lengthB8ne180100v, symObjAddr: 0x5C70, symBinAddr: 0x1000072B0, symSize: 0x40 }
  - { offset: 0x168E5, size: 0x8, addend: 0x0, symName: _globals, symObjAddr: 0x9EAB0, symBinAddr: 0x100017010, symSize: 0x0 }
  - { offset: 0x168FA, size: 0x8, addend: 0x0, symName: _inits, symObjAddr: 0x9EAC8, symBinAddr: 0x100017028, symSize: 0x0 }
  - { offset: 0x1690F, size: 0x8, addend: 0x0, symName: _functions, symObjAddr: 0x9EAE0, symBinAddr: 0x100017040, symSize: 0x0 }
  - { offset: 0x16924, size: 0x8, addend: 0x0, symName: _apis, symObjAddr: 0x9EAF8, symBinAddr: 0x100017058, symSize: 0x0 }
  - { offset: 0x1693A, size: 0x8, addend: 0x0, symName: _yychar, symObjAddr: 0x9EB10, symBinAddr: 0x100017070, symSize: 0x0 }
  - { offset: 0x16950, size: 0x8, addend: 0x0, symName: _yylval, symObjAddr: 0x9EB18, symBinAddr: 0x100017078, symSize: 0x0 }
  - { offset: 0x16A26, size: 0x8, addend: 0x0, symName: _yynerrs, symObjAddr: 0x9EB20, symBinAddr: 0x100017080, symSize: 0x0 }
  - { offset: 0x16A3C, size: 0x8, addend: 0x0, symName: __ZL6yypact, symObjAddr: 0xE240, symBinAddr: 0x1000149A0, symSize: 0x0 }
  - { offset: 0x16A79, size: 0x8, addend: 0x0, symName: __ZL11yytranslate, symObjAddr: 0xE260, symBinAddr: 0x1000149C0, symSize: 0x0 }
  - { offset: 0x16AA0, size: 0x8, addend: 0x0, symName: __ZL7yycheck, symObjAddr: 0xE379, symBinAddr: 0x100014AD9, symSize: 0x0 }
  - { offset: 0x16AC6, size: 0x8, addend: 0x0, symName: __ZL7yytable, symObjAddr: 0xE387, symBinAddr: 0x100014AE7, symSize: 0x0 }
  - { offset: 0x16AE0, size: 0x8, addend: 0x0, symName: __ZL8yydefact, symObjAddr: 0xE3A0, symBinAddr: 0x100014B00, symSize: 0x0 }
  - { offset: 0x16AFA, size: 0x8, addend: 0x0, symName: __ZL4yyr2, symObjAddr: 0xE3C0, symBinAddr: 0x100014B20, symSize: 0x0 }
  - { offset: 0x16B20, size: 0x8, addend: 0x0, symName: __ZL4yyr1, symObjAddr: 0xE3E0, symBinAddr: 0x100014B40, symSize: 0x0 }
  - { offset: 0x16B3A, size: 0x8, addend: 0x0, symName: __ZL7yypgoto, symObjAddr: 0xE3F2, symBinAddr: 0x100014B52, symSize: 0x0 }
  - { offset: 0x16B60, size: 0x8, addend: 0x0, symName: __ZL9yydefgoto, symObjAddr: 0xE3FB, symBinAddr: 0x100014B5B, symSize: 0x0 }
  - { offset: 0x16B7A, size: 0x8, addend: 0x0, symName: __ZL7yytname, symObjAddr: 0xE8B0, symBinAddr: 0x100016460, symSize: 0x0 }
  - { offset: 0x16BA5, size: 0x8, addend: 0x0, symName: __ZL6yystos, symObjAddr: 0xE410, symBinAddr: 0x100014B70, symSize: 0x0 }
  - { offset: 0x16C98, size: 0x8, addend: 0x0, symName: __ZL14yysyntax_errorPlPPcPK12yypcontext_t, symObjAddr: 0x2810, symBinAddr: 0x100003E50, symSize: 0x300 }
  - { offset: 0x16FD4, size: 0x8, addend: 0x0, symName: __ZNSt3__16vectorINS_10unique_ptrI8TypeExprNS_14default_deleteIS2_EEEENS_9allocatorIS5_EEE26__swap_out_circular_bufferERNS_14__split_bufferIS5_RS7_EE, symObjAddr: 0x55C0, symBinAddr: 0x100006C00, symSize: 0x120 }
  - { offset: 0x17080, size: 0x8, addend: 0x0, symName: __ZNSt3__16vectorINS_10unique_ptrI4DeclNS_14default_deleteIS2_EEEENS_9allocatorIS5_EEE26__swap_out_circular_bufferERNS_14__split_bufferIS5_RS7_EE, symObjAddr: 0x8EC0, symBinAddr: 0x10000A500, symSize: 0x120 }
  - { offset: 0x17113, size: 0x8, addend: 0x0, symName: __ZNSt3__16vectorINS_10unique_ptrI8FuncDeclNS_14default_deleteIS2_EEEENS_9allocatorIS5_EEE26__swap_out_circular_bufferERNS_14__split_bufferIS5_RS7_EE, symObjAddr: 0xA540, symBinAddr: 0x10000BB80, symSize: 0x120 }
  - { offset: 0x171A6, size: 0x8, addend: 0x0, symName: __ZNSt3__16vectorINS_10unique_ptrI3APINS_14default_deleteIS2_EEEENS_9allocatorIS5_EEE26__swap_out_circular_bufferERNS_14__split_bufferIS5_RS7_EE, symObjAddr: 0xBBC0, symBinAddr: 0x10000D200, symSize: 0x120 }
  - { offset: 0x1734C, size: 0x8, addend: 0x0, symName: __ZNSt3__16vectorINS_10unique_ptrI4DeclNS_14default_deleteIS2_EEEENS_9allocatorIS5_EEEC1B8ne180100Ev, symObjAddr: 0x0, symBinAddr: 0x100001640, symSize: 0x20 }
  - { offset: 0x17376, size: 0x8, addend: 0x0, symName: __ZNSt3__16vectorINS_10unique_ptrI4DeclNS_14default_deleteIS2_EEEENS_9allocatorIS5_EEED1B8ne180100Ev, symObjAddr: 0x20, symBinAddr: 0x100001660, symSize: 0x20 }
  - { offset: 0x173A0, size: 0x8, addend: 0x0, symName: __ZNSt3__16vectorINS_10unique_ptrI4InitNS_14default_deleteIS2_EEEENS_9allocatorIS5_EEEC1B8ne180100Ev, symObjAddr: 0x40, symBinAddr: 0x100001680, symSize: 0x20 }
  - { offset: 0x173CA, size: 0x8, addend: 0x0, symName: __ZNSt3__16vectorINS_10unique_ptrI4InitNS_14default_deleteIS2_EEEENS_9allocatorIS5_EEED1B8ne180100Ev, symObjAddr: 0x60, symBinAddr: 0x1000016A0, symSize: 0x20 }
  - { offset: 0x173F4, size: 0x8, addend: 0x0, symName: __ZNSt3__16vectorINS_10unique_ptrI8FuncDeclNS_14default_deleteIS2_EEEENS_9allocatorIS5_EEEC1B8ne180100Ev, symObjAddr: 0x80, symBinAddr: 0x1000016C0, symSize: 0x20 }
  - { offset: 0x1741E, size: 0x8, addend: 0x0, symName: __ZNSt3__16vectorINS_10unique_ptrI8FuncDeclNS_14default_deleteIS2_EEEENS_9allocatorIS5_EEED1B8ne180100Ev, symObjAddr: 0xA0, symBinAddr: 0x1000016E0, symSize: 0x20 }
  - { offset: 0x17448, size: 0x8, addend: 0x0, symName: __ZNSt3__16vectorINS_10unique_ptrI3APINS_14default_deleteIS2_EEEENS_9allocatorIS5_EEEC1B8ne180100Ev, symObjAddr: 0xC0, symBinAddr: 0x100001700, symSize: 0x20 }
  - { offset: 0x17472, size: 0x8, addend: 0x0, symName: __ZNSt3__16vectorINS_10unique_ptrI3APINS_14default_deleteIS2_EEEENS_9allocatorIS5_EEED1B8ne180100Ev, symObjAddr: 0xE0, symBinAddr: 0x100001720, symSize: 0x20 }
  - { offset: 0x1749B, size: 0x8, addend: 0x0, symName: __Z7yyparsev, symObjAddr: 0x100, symBinAddr: 0x100001740, symSize: 0x1EC0 }
  - { offset: 0x177C8, size: 0x8, addend: 0x0, symName: __ZNSt3__16vectorINS_10unique_ptrI4DeclNS_14default_deleteIS2_EEEENS_9allocatorIS5_EEEC1B8ne180100EOS8_, symObjAddr: 0x1FC0, symBinAddr: 0x100003600, symSize: 0x30 }
  - { offset: 0x17803, size: 0x8, addend: 0x0, symName: __ZNSt3__16vectorINS_10unique_ptrI4InitNS_14default_deleteIS2_EEEENS_9allocatorIS5_EEEC1B8ne180100EOS8_, symObjAddr: 0x1FF0, symBinAddr: 0x100003630, symSize: 0x30 }
  - { offset: 0x1783E, size: 0x8, addend: 0x0, symName: __ZNSt3__16vectorINS_10unique_ptrI8FuncDeclNS_14default_deleteIS2_EEEENS_9allocatorIS5_EEEC1B8ne180100EOS8_, symObjAddr: 0x2020, symBinAddr: 0x100003660, symSize: 0x30 }
  - { offset: 0x17879, size: 0x8, addend: 0x0, symName: __ZNSt3__16vectorINS_10unique_ptrI3APINS_14default_deleteIS2_EEEENS_9allocatorIS5_EEEC1B8ne180100EOS8_, symObjAddr: 0x2050, symBinAddr: 0x100003690, symSize: 0x30 }
  - { offset: 0x178B4, size: 0x8, addend: 0x0, symName: __ZN4SpecC1ENSt3__16vectorINS0_10unique_ptrI4DeclNS0_14default_deleteIS3_EEEENS0_9allocatorIS6_EEEENS1_INS2_I4InitNS4_ISA_EEEENS7_ISC_EEEENS1_INS2_I8FuncDeclNS4_ISF_EEEENS7_ISH_EEEENS1_INS2_I3APINS4_ISK_EEEENS7_ISM_EEEE, symObjAddr: 0x2080, symBinAddr: 0x1000036C0, symSize: 0x30 }
  - { offset: 0x1791E, size: 0x8, addend: 0x0, symName: __ZNSt3__16vectorINS_10unique_ptrI4DeclNS_14default_deleteIS2_EEEENS_9allocatorIS5_EEE9push_backB8ne180100EOS5_, symObjAddr: 0x20B0, symBinAddr: 0x1000036F0, symSize: 0x80 }
  - { offset: 0x17964, size: 0x8, addend: 0x0, symName: __ZNSt3__110unique_ptrI4DeclNS_14default_deleteIS1_EEEC1B8ne180100ILb1EvEEPS1_, symObjAddr: 0x2130, symBinAddr: 0x100003770, symSize: 0x30 }
  - { offset: 0x179A7, size: 0x8, addend: 0x0, symName: __ZNSt3__110unique_ptrI4DeclNS_14default_deleteIS1_EEED1B8ne180100Ev, symObjAddr: 0x2160, symBinAddr: 0x1000037A0, symSize: 0x20 }
  - { offset: 0x179D1, size: 0x8, addend: 0x0, symName: __ZNSt3__16vectorINS_10unique_ptrI8FuncDeclNS_14default_deleteIS2_EEEENS_9allocatorIS5_EEE9push_backB8ne180100EOS5_, symObjAddr: 0x2180, symBinAddr: 0x1000037C0, symSize: 0x80 }
  - { offset: 0x17A17, size: 0x8, addend: 0x0, symName: __ZNSt3__110unique_ptrI8FuncDeclNS_14default_deleteIS1_EEEC1B8ne180100ILb1EvEEPS1_, symObjAddr: 0x2200, symBinAddr: 0x100003840, symSize: 0x30 }
  - { offset: 0x17A5A, size: 0x8, addend: 0x0, symName: __ZNSt3__110unique_ptrI8FuncDeclNS_14default_deleteIS1_EEED1B8ne180100Ev, symObjAddr: 0x2230, symBinAddr: 0x100003870, symSize: 0x20 }
  - { offset: 0x17A84, size: 0x8, addend: 0x0, symName: __ZNSt3__16vectorINS_10unique_ptrI3APINS_14default_deleteIS2_EEEENS_9allocatorIS5_EEE9push_backB8ne180100EOS5_, symObjAddr: 0x2250, symBinAddr: 0x100003890, symSize: 0x80 }
  - { offset: 0x17ACA, size: 0x8, addend: 0x0, symName: __ZNSt3__110unique_ptrI3APINS_14default_deleteIS1_EEEC1B8ne180100ILb1EvEEPS1_, symObjAddr: 0x22D0, symBinAddr: 0x100003910, symSize: 0x30 }
  - { offset: 0x17B0D, size: 0x8, addend: 0x0, symName: __ZNSt3__110unique_ptrI3APINS_14default_deleteIS1_EEED1B8ne180100Ev, symObjAddr: 0x2300, symBinAddr: 0x100003940, symSize: 0x20 }
  - { offset: 0x17B37, size: 0x8, addend: 0x0, symName: __ZNSt3__110unique_ptrI8TypeExprNS_14default_deleteIS1_EEEC1B8ne180100ILb1EvEEPS1_, symObjAddr: 0x2320, symBinAddr: 0x100003960, symSize: 0x30 }
  - { offset: 0x17B7A, size: 0x8, addend: 0x0, symName: __ZN4DeclC1ENSt3__112basic_stringIcNS0_11char_traitsIcEENS0_9allocatorIcEEEENS0_10unique_ptrI8TypeExprNS0_14default_deleteIS8_EEEE, symObjAddr: 0x2350, symBinAddr: 0x100003990, symSize: 0x30 }
  - { offset: 0x17BC2, size: 0x8, addend: 0x0, symName: __ZNSt3__110unique_ptrI8TypeExprNS_14default_deleteIS1_EEED1B8ne180100Ev, symObjAddr: 0x2380, symBinAddr: 0x1000039C0, symSize: 0x20 }
  - { offset: 0x17BEC, size: 0x8, addend: 0x0, symName: __ZNSt3__16vectorINS_10unique_ptrI8TypeExprNS_14default_deleteIS2_EEEENS_9allocatorIS5_EEEC1B8ne180100Ev, symObjAddr: 0x23A0, symBinAddr: 0x1000039E0, symSize: 0x20 }
  - { offset: 0x17C16, size: 0x8, addend: 0x0, symName: __ZNKSt3__16vectorINS_10unique_ptrI8TypeExprNS_14default_deleteIS2_EEEENS_9allocatorIS5_EEE5emptyB8ne180100Ev, symObjAddr: 0x23C0, symBinAddr: 0x100003A00, symSize: 0x20 }
  - { offset: 0x17C3C, size: 0x8, addend: 0x0, symName: __ZNSt3__16vectorINS_10unique_ptrI8TypeExprNS_14default_deleteIS2_EEEENS_9allocatorIS5_EEE9push_backB8ne180100EOS5_, symObjAddr: 0x23E0, symBinAddr: 0x100003A20, symSize: 0x80 }
  - { offset: 0x17C82, size: 0x8, addend: 0x0, symName: __ZNSt3__16vectorINS_10unique_ptrI8TypeExprNS_14default_deleteIS2_EEEENS_9allocatorIS5_EEE4backB8ne180100Ev, symObjAddr: 0x2460, symBinAddr: 0x100003AA0, symSize: 0x20 }
  - { offset: 0x17CA8, size: 0x8, addend: 0x0, symName: __ZNSt3__16vectorINS_10unique_ptrI8TypeExprNS_14default_deleteIS2_EEEENS_9allocatorIS5_EEE8pop_backEv, symObjAddr: 0x2480, symBinAddr: 0x100003AC0, symSize: 0x30 }
  - { offset: 0x17CD0, size: 0x8, addend: 0x0, symName: __ZNSt3__16vectorINS_10unique_ptrI8TypeExprNS_14default_deleteIS2_EEEENS_9allocatorIS5_EEEC1B8ne180100EOS8_, symObjAddr: 0x24B0, symBinAddr: 0x100003AF0, symSize: 0x30 }
  - { offset: 0x17D0B, size: 0x8, addend: 0x0, symName: __ZN8FuncDeclC1ENSt3__112basic_stringIcNS0_11char_traitsIcEENS0_9allocatorIcEEEENS0_6vectorINS0_10unique_ptrI8TypeExprNS0_14default_deleteIS9_EEEENS4_ISC_EEEENS0_4pairI16HTTPResponseCodeSE_EE, symObjAddr: 0x2520, symBinAddr: 0x100003B60, symSize: 0x30 }
  - { offset: 0x17D62, size: 0x8, addend: 0x0, symName: __ZNSt3__14pairI16HTTPResponseCodeNS_6vectorINS_10unique_ptrI8TypeExprNS_14default_deleteIS4_EEEENS_9allocatorIS7_EEEEED1Ev, symObjAddr: 0x2550, symBinAddr: 0x100003B90, symSize: 0x20 }
  - { offset: 0x17D8E, size: 0x8, addend: 0x0, symName: __ZNSt3__16vectorINS_10unique_ptrI8TypeExprNS_14default_deleteIS2_EEEENS_9allocatorIS5_EEED1B8ne180100Ev, symObjAddr: 0x2570, symBinAddr: 0x100003BB0, symSize: 0x20 }
  - { offset: 0x17DBD, size: 0x8, addend: 0x0, symName: __ZNSt3__112basic_stringIcNS_11char_traitsIcEENS_9allocatorIcEEEC1B8ne180100ILi0EEEPKc, symObjAddr: 0x2590, symBinAddr: 0x100003BD0, symSize: 0x30 }
  - { offset: 0x17DFC, size: 0x8, addend: 0x0, symName: __ZN9TypeConstC1ENSt3__112basic_stringIcNS0_11char_traitsIcEENS0_9allocatorIcEEEE, symObjAddr: 0x25C0, symBinAddr: 0x100003C00, symSize: 0x20 }
  - { offset: 0x17E35, size: 0x8, addend: 0x0, symName: __ZN3VarC1ENSt3__112basic_stringIcNS0_11char_traitsIcEENS0_9allocatorIcEEEE, symObjAddr: 0x25E0, symBinAddr: 0x100003C20, symSize: 0x20 }
  - { offset: 0x17E6E, size: 0x8, addend: 0x0, symName: __ZNSt3__16vectorINS_10unique_ptrI4ExprNS_14default_deleteIS2_EEEENS_9allocatorIS5_EEEC1B8ne180100Ev, symObjAddr: 0x2600, symBinAddr: 0x100003C40, symSize: 0x20 }
  - { offset: 0x17E98, size: 0x8, addend: 0x0, symName: __ZN8FuncCallC1ENSt3__112basic_stringIcNS0_11char_traitsIcEENS0_9allocatorIcEEEENS0_6vectorINS0_10unique_ptrI4ExprNS0_14default_deleteIS9_EEEENS4_ISC_EEEE, symObjAddr: 0x2620, symBinAddr: 0x100003C60, symSize: 0x30 }
  - { offset: 0x17EE0, size: 0x8, addend: 0x0, symName: __ZNSt3__16vectorINS_10unique_ptrI4ExprNS_14default_deleteIS2_EEEENS_9allocatorIS5_EEED1B8ne180100Ev, symObjAddr: 0x2650, symBinAddr: 0x100003C90, symSize: 0x20 }
  - { offset: 0x17F0A, size: 0x8, addend: 0x0, symName: __ZNSt3__110unique_ptrI8FuncCallNS_14default_deleteIS1_EEEC1B8ne180100ILb1EvEEPS1_, symObjAddr: 0x2670, symBinAddr: 0x100003CB0, symSize: 0x30 }
  - { offset: 0x17F4D, size: 0x8, addend: 0x0, symName: __ZNSt3__110unique_ptrI4ExprNS_14default_deleteIS1_EEEC1B8ne180100ILb1EvEEPS1_, symObjAddr: 0x26A0, symBinAddr: 0x100003CE0, symSize: 0x30 }
  - { offset: 0x17F90, size: 0x8, addend: 0x0, symName: __ZN8ResponseC1E16HTTPResponseCodeNSt3__110unique_ptrI4ExprNS1_14default_deleteIS3_EEEE, symObjAddr: 0x26D0, symBinAddr: 0x100003D10, symSize: 0x30 }
  - { offset: 0x17FD9, size: 0x8, addend: 0x0, symName: __ZN7APIcallC1ENSt3__110unique_ptrI8FuncCallNS0_14default_deleteIS2_EEEE8Response, symObjAddr: 0x2700, symBinAddr: 0x100003D40, symSize: 0x30 }
  - { offset: 0x18023, size: 0x8, addend: 0x0, symName: __ZN8ResponseD1Ev, symObjAddr: 0x2730, symBinAddr: 0x100003D70, symSize: 0x20 }
  - { offset: 0x18050, size: 0x8, addend: 0x0, symName: __ZNSt3__110unique_ptrI4ExprNS_14default_deleteIS1_EEED1B8ne180100Ev, symObjAddr: 0x2750, symBinAddr: 0x100003D90, symSize: 0x20 }
  - { offset: 0x1807A, size: 0x8, addend: 0x0, symName: __ZNSt3__110unique_ptrI8FuncCallNS_14default_deleteIS1_EEED1B8ne180100Ev, symObjAddr: 0x2770, symBinAddr: 0x100003DB0, symSize: 0x20 }
  - { offset: 0x180A4, size: 0x8, addend: 0x0, symName: __ZNSt3__110unique_ptrI7APIcallNS_14default_deleteIS1_EEEC1B8ne180100ILb1EvEEPS1_, symObjAddr: 0x2790, symBinAddr: 0x100003DD0, symSize: 0x30 }
  - { offset: 0x180E7, size: 0x8, addend: 0x0, symName: __ZN3APIC1ENSt3__110unique_ptrI4ExprNS0_14default_deleteIS2_EEEENS1_I7APIcallNS3_IS6_EEEE8Response, symObjAddr: 0x27C0, symBinAddr: 0x100003E00, symSize: 0x30 }
  - { offset: 0x18141, size: 0x8, addend: 0x0, symName: __ZNSt3__110unique_ptrI7APIcallNS_14default_deleteIS1_EEED1B8ne180100Ev, symObjAddr: 0x27F0, symBinAddr: 0x100003E30, symSize: 0x20 }
  - { offset: 0x1816B, size: 0x8, addend: 0x0, symName: __Z7yyerrorPKc, symObjAddr: 0x2B10, symBinAddr: 0x100004150, symSize: 0x60 }
  - { offset: 0x18194, size: 0x8, addend: 0x0, symName: __ZL10yydestructPKc15yysymbol_kind_tP7YYSTYPE, symObjAddr: 0x2B70, symBinAddr: 0x1000041B0, symSize: 0x30 }
  - { offset: 0x181DD, size: 0x8, addend: 0x0, symName: __ZNSt3__113basic_ostreamIcNS_11char_traitsIcEEElsB8ne180100EPFRS3_S4_E, symObjAddr: 0x2BE0, symBinAddr: 0x100004220, symSize: 0x20 }
  - { offset: 0x18211, size: 0x8, addend: 0x0, symName: __ZN4SpecC2ENSt3__16vectorINS0_10unique_ptrI4DeclNS0_14default_deleteIS3_EEEENS0_9allocatorIS6_EEEENS1_INS2_I4InitNS4_ISA_EEEENS7_ISC_EEEENS1_INS2_I8FuncDeclNS4_ISF_EEEENS7_ISH_EEEENS1_INS2_I3APINS4_ISK_EEEENS7_ISM_EEEE, symObjAddr: 0x2C50, symBinAddr: 0x100004290, symSize: 0x70 }
  - { offset: 0x1827B, size: 0x8, addend: 0x0, symName: __ZN4DeclC2ENSt3__112basic_stringIcNS0_11char_traitsIcEENS0_9allocatorIcEEEENS0_10unique_ptrI8TypeExprNS0_14default_deleteIS8_EEEE, symObjAddr: 0x2CC0, symBinAddr: 0x100004300, symSize: 0x50 }
  - { offset: 0x182C3, size: 0x8, addend: 0x0, symName: __ZNSt3__112basic_stringIcNS_11char_traitsIcEENS_9allocatorIcEEEC1B8ne180100EOS5_, symObjAddr: 0x2D10, symBinAddr: 0x100004350, symSize: 0x30 }
  - { offset: 0x182FC, size: 0x8, addend: 0x0, symName: __ZNSt3__110unique_ptrI8TypeExprNS_14default_deleteIS1_EEEC1B8ne180100EOS4_, symObjAddr: 0x2D40, symBinAddr: 0x100004380, symSize: 0x30 }
  - { offset: 0x18334, size: 0x8, addend: 0x0, symName: __ZN4DeclD1Ev, symObjAddr: 0x2D70, symBinAddr: 0x1000043B0, symSize: 0x20 }
  - { offset: 0x1835E, size: 0x8, addend: 0x0, symName: __ZN4DeclD0Ev, symObjAddr: 0x2D90, symBinAddr: 0x1000043D0, symSize: 0x30 }
  - { offset: 0x18388, size: 0x8, addend: 0x0, symName: __ZNK4Decl6acceptER10ASTVisitor, symObjAddr: 0x2DC0, symBinAddr: 0x100004400, symSize: 0x30 }
  - { offset: 0x183BC, size: 0x8, addend: 0x0, symName: __ZNSt3__112basic_stringIcNS_11char_traitsIcEENS_9allocatorIcEEEC2B8ne180100EOS5_, symObjAddr: 0x2DF0, symBinAddr: 0x100004430, symSize: 0xD0 }
  - { offset: 0x18425, size: 0x8, addend: 0x0, symName: __ZZNSt3__112basic_stringIcNS_11char_traitsIcEENS_9allocatorIcEEEC1B8ne180100EOS5_ENKUlRS5_E_clES7_, symObjAddr: 0x2EC0, symBinAddr: 0x100004500, symSize: 0x40 }
  - { offset: 0x1845E, size: 0x8, addend: 0x0, symName: __ZNSt3__117__compressed_pairINS_12basic_stringIcNS_11char_traitsIcEENS_9allocatorIcEEE5__repES5_E5firstB8ne180100Ev, symObjAddr: 0x2F10, symBinAddr: 0x100004550, symSize: 0x20 }
  - { offset: 0x18484, size: 0x8, addend: 0x0, symName: __ZNKSt3__112basic_stringIcNS_11char_traitsIcEENS_9allocatorIcEEE14__annotate_newB8ne180100Em, symObjAddr: 0x2F30, symBinAddr: 0x100004570, symSize: 0x10 }
  - { offset: 0x184B9, size: 0x8, addend: 0x0, symName: __ZNKSt3__112basic_stringIcNS_11char_traitsIcEENS_9allocatorIcEEE9__is_longB8ne180100Ev, symObjAddr: 0x2F40, symBinAddr: 0x100004580, symSize: 0x30 }
  - { offset: 0x184DF, size: 0x8, addend: 0x0, symName: __ZNKSt3__112basic_stringIcNS_11char_traitsIcEENS_9allocatorIcEEE4sizeB8ne180100Ev, symObjAddr: 0x2F70, symBinAddr: 0x1000045B0, symSize: 0x50 }
  - { offset: 0x18505, size: 0x8, addend: 0x0, symName: __ZNKSt3__112basic_stringIcNS_11char_traitsIcEENS_9allocatorIcEEE17__annotate_deleteB8ne180100Ev, symObjAddr: 0x2FC0, symBinAddr: 0x100004600, symSize: 0x10 }
  - { offset: 0x1852B, size: 0x8, addend: 0x0, symName: __ZNSt3__122__compressed_pair_elemINS_12basic_stringIcNS_11char_traitsIcEENS_9allocatorIcEEE5__repELi0ELb0EE5__getB8ne180100Ev, symObjAddr: 0x2FD0, symBinAddr: 0x100004610, symSize: 0x10 }
  - { offset: 0x18551, size: 0x8, addend: 0x0, symName: __ZNKSt3__117__compressed_pairINS_12basic_stringIcNS_11char_traitsIcEENS_9allocatorIcEEE5__repES5_E5firstB8ne180100Ev, symObjAddr: 0x2FE0, symBinAddr: 0x100004620, symSize: 0x20 }
  - { offset: 0x18577, size: 0x8, addend: 0x0, symName: __ZNKSt3__122__compressed_pair_elemINS_12basic_stringIcNS_11char_traitsIcEENS_9allocatorIcEEE5__repELi0ELb0EE5__getB8ne180100Ev, symObjAddr: 0x3000, symBinAddr: 0x100004640, symSize: 0x10 }
  - { offset: 0x1859D, size: 0x8, addend: 0x0, symName: __ZNKSt3__112basic_stringIcNS_11char_traitsIcEENS_9allocatorIcEEE15__get_long_sizeB8ne180100Ev, symObjAddr: 0x3010, symBinAddr: 0x100004650, symSize: 0x20 }
  - { offset: 0x185C3, size: 0x8, addend: 0x0, symName: __ZNKSt3__112basic_stringIcNS_11char_traitsIcEENS_9allocatorIcEEE16__get_short_sizeB8ne180100Ev, symObjAddr: 0x3030, symBinAddr: 0x100004670, symSize: 0x30 }
  - { offset: 0x185E9, size: 0x8, addend: 0x0, symName: __ZNSt3__110unique_ptrI8TypeExprNS_14default_deleteIS1_EEEC2B8ne180100EOS4_, symObjAddr: 0x3060, symBinAddr: 0x1000046A0, symSize: 0x60 }
  - { offset: 0x18621, size: 0x8, addend: 0x0, symName: __ZNSt3__110unique_ptrI8TypeExprNS_14default_deleteIS1_EEE7releaseB8ne180100Ev, symObjAddr: 0x30C0, symBinAddr: 0x100004700, symSize: 0x40 }
  - { offset: 0x18656, size: 0x8, addend: 0x0, symName: __ZNSt3__110unique_ptrI8TypeExprNS_14default_deleteIS1_EEE11get_deleterB8ne180100Ev, symObjAddr: 0x3100, symBinAddr: 0x100004740, symSize: 0x20 }
  - { offset: 0x18686, size: 0x8, addend: 0x0, symName: __ZNSt3__117__compressed_pairIP8TypeExprNS_14default_deleteIS1_EEEC1B8ne180100IS2_S4_EEOT_OT0_, symObjAddr: 0x3120, symBinAddr: 0x100004760, symSize: 0x30 }
  - { offset: 0x186DE, size: 0x8, addend: 0x0, symName: __ZNSt3__117__compressed_pairIP8TypeExprNS_14default_deleteIS1_EEE5firstB8ne180100Ev, symObjAddr: 0x3150, symBinAddr: 0x100004790, symSize: 0x20 }
  - { offset: 0x18704, size: 0x8, addend: 0x0, symName: __ZNSt3__122__compressed_pair_elemIP8TypeExprLi0ELb0EE5__getB8ne180100Ev, symObjAddr: 0x3170, symBinAddr: 0x1000047B0, symSize: 0x10 }
  - { offset: 0x1872A, size: 0x8, addend: 0x0, symName: __ZNSt3__117__compressed_pairIP8TypeExprNS_14default_deleteIS1_EEE6secondB8ne180100Ev, symObjAddr: 0x3180, symBinAddr: 0x1000047C0, symSize: 0x20 }
  - { offset: 0x18750, size: 0x8, addend: 0x0, symName: __ZNSt3__122__compressed_pair_elemINS_14default_deleteI8TypeExprEELi1ELb1EE5__getB8ne180100Ev, symObjAddr: 0x31A0, symBinAddr: 0x1000047E0, symSize: 0x10 }
  - { offset: 0x18776, size: 0x8, addend: 0x0, symName: __ZNSt3__117__compressed_pairIP8TypeExprNS_14default_deleteIS1_EEEC2B8ne180100IS2_S4_EEOT_OT0_, symObjAddr: 0x31B0, symBinAddr: 0x1000047F0, symSize: 0x40 }
  - { offset: 0x187CE, size: 0x8, addend: 0x0, symName: __ZNSt3__122__compressed_pair_elemIP8TypeExprLi0ELb0EEC2B8ne180100IS2_vEEOT_, symObjAddr: 0x31F0, symBinAddr: 0x100004830, symSize: 0x20 }
  - { offset: 0x18810, size: 0x8, addend: 0x0, symName: __ZNSt3__122__compressed_pair_elemINS_14default_deleteI8TypeExprEELi1ELb1EEC2B8ne180100IS3_vEEOT_, symObjAddr: 0x3210, symBinAddr: 0x100004850, symSize: 0x10 }
  - { offset: 0x18852, size: 0x8, addend: 0x0, symName: __ZN4DeclD2Ev, symObjAddr: 0x3220, symBinAddr: 0x100004860, symSize: 0x40 }
  - { offset: 0x18881, size: 0x8, addend: 0x0, symName: __ZNSt3__14pairI16HTTPResponseCodeNS_6vectorINS_10unique_ptrI8TypeExprNS_14default_deleteIS4_EEEENS_9allocatorIS7_EEEEEC1B8ne180100IS1_SA_Li0EEEOT_OT0_, symObjAddr: 0x3260, symBinAddr: 0x1000048A0, symSize: 0x30 }
  - { offset: 0x188DF, size: 0x8, addend: 0x0, symName: __ZNSt3__14pairI16HTTPResponseCodeNS_6vectorINS_10unique_ptrI8TypeExprNS_14default_deleteIS4_EEEENS_9allocatorIS7_EEEEEC2B8ne180100IS1_SA_Li0EEEOT_OT0_, symObjAddr: 0x3290, symBinAddr: 0x1000048D0, symSize: 0x40 }
  - { offset: 0x1893D, size: 0x8, addend: 0x0, symName: __ZN8FuncDeclC2ENSt3__112basic_stringIcNS0_11char_traitsIcEENS0_9allocatorIcEEEENS0_6vectorINS0_10unique_ptrI8TypeExprNS0_14default_deleteIS9_EEEENS4_ISC_EEEENS0_4pairI16HTTPResponseCodeSE_EE, symObjAddr: 0x32D0, symBinAddr: 0x100004910, symSize: 0x60 }
  - { offset: 0x18994, size: 0x8, addend: 0x0, symName: __ZNSt3__14pairI16HTTPResponseCodeNS_6vectorINS_10unique_ptrI8TypeExprNS_14default_deleteIS4_EEEENS_9allocatorIS7_EEEEEC1B8ne180100EOSB_, symObjAddr: 0x3330, symBinAddr: 0x100004970, symSize: 0x30 }
  - { offset: 0x189C9, size: 0x8, addend: 0x0, symName: __ZNSt3__14pairI16HTTPResponseCodeNS_6vectorINS_10unique_ptrI8TypeExprNS_14default_deleteIS4_EEEENS_9allocatorIS7_EEEEEC2B8ne180100EOSB_, symObjAddr: 0x3360, symBinAddr: 0x1000049A0, symSize: 0x40 }
  - { offset: 0x189FE, size: 0x8, addend: 0x0, symName: __ZNSt3__14pairI16HTTPResponseCodeNS_6vectorINS_10unique_ptrI8TypeExprNS_14default_deleteIS4_EEEENS_9allocatorIS7_EEEEED2Ev, symObjAddr: 0x33A0, symBinAddr: 0x1000049E0, symSize: 0x20 }
  - { offset: 0x18A2A, size: 0x8, addend: 0x0, symName: __ZN9TypeConstC2ENSt3__112basic_stringIcNS0_11char_traitsIcEENS0_9allocatorIcEEEE, symObjAddr: 0x33C0, symBinAddr: 0x100004A00, symSize: 0x50 }
  - { offset: 0x18A63, size: 0x8, addend: 0x0, symName: __ZN8TypeExprC2E14TypeExpression, symObjAddr: 0x3410, symBinAddr: 0x100004A50, symSize: 0x30 }
  - { offset: 0x18A9B, size: 0x8, addend: 0x0, symName: __ZN9TypeConstD1Ev, symObjAddr: 0x3440, symBinAddr: 0x100004A80, symSize: 0x20 }
  - { offset: 0x18AC7, size: 0x8, addend: 0x0, symName: __ZN9TypeConstD0Ev, symObjAddr: 0x3460, symBinAddr: 0x100004AA0, symSize: 0x30 }
  - { offset: 0x18AF3, size: 0x8, addend: 0x0, symName: __ZNK9TypeConst6acceptER10ASTVisitor, symObjAddr: 0x3490, symBinAddr: 0x100004AD0, symSize: 0x30 }
  - { offset: 0x18B27, size: 0x8, addend: 0x0, symName: __ZNK9TypeConst5cloneEv, symObjAddr: 0x34C0, symBinAddr: 0x100004B00, symSize: 0x50 }
  - { offset: 0x18B4D, size: 0x8, addend: 0x0, symName: __ZN8TypeExprD1Ev, symObjAddr: 0x3510, symBinAddr: 0x100004B50, symSize: 0x10 }
  - { offset: 0x18B77, size: 0x8, addend: 0x0, symName: __ZN8TypeExprD0Ev, symObjAddr: 0x3520, symBinAddr: 0x100004B60, symSize: 0x10 }
  - { offset: 0x18BA1, size: 0x8, addend: 0x0, symName: __ZN9TypeConstD2Ev, symObjAddr: 0x3530, symBinAddr: 0x100004B70, symSize: 0x40 }
  - { offset: 0x18BCD, size: 0x8, addend: 0x0, symName: __ZN8TypeExprD2Ev, symObjAddr: 0x3570, symBinAddr: 0x100004BB0, symSize: 0x10 }
  - { offset: 0x18BF7, size: 0x8, addend: 0x0, symName: __ZNSt3__110unique_ptrI8TypeExprNS_14default_deleteIS1_EEEC1B8ne180100I9TypeConstNS2_IS6_EEvvEEONS0_IT_T0_EE, symObjAddr: 0x3650, symBinAddr: 0x100004C90, symSize: 0x30 }
  - { offset: 0x18C43, size: 0x8, addend: 0x0, symName: __ZNSt3__110unique_ptrI9TypeConstNS_14default_deleteIS1_EEED1B8ne180100Ev, symObjAddr: 0x3680, symBinAddr: 0x100004CC0, symSize: 0x20 }
  - { offset: 0x18C6D, size: 0x8, addend: 0x0, symName: __ZNSt3__110unique_ptrI9TypeConstNS_14default_deleteIS1_EEEC1B8ne180100ILb1EvEEPS1_, symObjAddr: 0x36A0, symBinAddr: 0x100004CE0, symSize: 0x30 }
  - { offset: 0x18CB0, size: 0x8, addend: 0x0, symName: __ZNSt3__110unique_ptrI9TypeConstNS_14default_deleteIS1_EEEC2B8ne180100ILb1EvEEPS1_, symObjAddr: 0x36D0, symBinAddr: 0x100004D10, symSize: 0x40 }
  - { offset: 0x18CF8, size: 0x8, addend: 0x0, symName: __ZNSt3__117__compressed_pairIP9TypeConstNS_14default_deleteIS1_EEEC1B8ne180100IRS2_NS_16__value_init_tagEEEOT_OT0_, symObjAddr: 0x3710, symBinAddr: 0x100004D50, symSize: 0x30 }
  - { offset: 0x18D50, size: 0x8, addend: 0x0, symName: __ZNSt3__117__compressed_pairIP9TypeConstNS_14default_deleteIS1_EEEC2B8ne180100IRS2_NS_16__value_init_tagEEEOT_OT0_, symObjAddr: 0x3740, symBinAddr: 0x100004D80, symSize: 0x40 }
  - { offset: 0x18DA8, size: 0x8, addend: 0x0, symName: __ZNSt3__122__compressed_pair_elemIP9TypeConstLi0ELb0EEC2B8ne180100IRS2_vEEOT_, symObjAddr: 0x3780, symBinAddr: 0x100004DC0, symSize: 0x20 }
  - { offset: 0x18DEA, size: 0x8, addend: 0x0, symName: __ZNSt3__122__compressed_pair_elemINS_14default_deleteI9TypeConstEELi1ELb1EEC2B8ne180100ENS_16__value_init_tagE, symObjAddr: 0x37A0, symBinAddr: 0x100004DE0, symSize: 0x10 }
  - { offset: 0x18E1F, size: 0x8, addend: 0x0, symName: __ZNSt3__110unique_ptrI8TypeExprNS_14default_deleteIS1_EEEC2B8ne180100I9TypeConstNS2_IS6_EEvvEEONS0_IT_T0_EE, symObjAddr: 0x37B0, symBinAddr: 0x100004DF0, symSize: 0x60 }
  - { offset: 0x18E6B, size: 0x8, addend: 0x0, symName: __ZNSt3__110unique_ptrI9TypeConstNS_14default_deleteIS1_EEE7releaseB8ne180100Ev, symObjAddr: 0x3810, symBinAddr: 0x100004E50, symSize: 0x40 }
  - { offset: 0x18EA0, size: 0x8, addend: 0x0, symName: __ZNSt3__110unique_ptrI9TypeConstNS_14default_deleteIS1_EEE11get_deleterB8ne180100Ev, symObjAddr: 0x3850, symBinAddr: 0x100004E90, symSize: 0x20 }
  - { offset: 0x18ED0, size: 0x8, addend: 0x0, symName: __ZNSt3__117__compressed_pairIP8TypeExprNS_14default_deleteIS1_EEEC1B8ne180100IP9TypeConstNS3_IS7_EEEEOT_OT0_, symObjAddr: 0x3870, symBinAddr: 0x100004EB0, symSize: 0x30 }
  - { offset: 0x18F28, size: 0x8, addend: 0x0, symName: __ZNSt3__117__compressed_pairIP9TypeConstNS_14default_deleteIS1_EEE5firstB8ne180100Ev, symObjAddr: 0x38A0, symBinAddr: 0x100004EE0, symSize: 0x20 }
  - { offset: 0x18F4E, size: 0x8, addend: 0x0, symName: __ZNSt3__122__compressed_pair_elemIP9TypeConstLi0ELb0EE5__getB8ne180100Ev, symObjAddr: 0x38C0, symBinAddr: 0x100004F00, symSize: 0x10 }
  - { offset: 0x18F74, size: 0x8, addend: 0x0, symName: __ZNSt3__117__compressed_pairIP9TypeConstNS_14default_deleteIS1_EEE6secondB8ne180100Ev, symObjAddr: 0x38D0, symBinAddr: 0x100004F10, symSize: 0x20 }
  - { offset: 0x18F9A, size: 0x8, addend: 0x0, symName: __ZNSt3__122__compressed_pair_elemINS_14default_deleteI9TypeConstEELi1ELb1EE5__getB8ne180100Ev, symObjAddr: 0x38F0, symBinAddr: 0x100004F30, symSize: 0x10 }
  - { offset: 0x18FC0, size: 0x8, addend: 0x0, symName: __ZNSt3__117__compressed_pairIP8TypeExprNS_14default_deleteIS1_EEEC2B8ne180100IP9TypeConstNS3_IS7_EEEEOT_OT0_, symObjAddr: 0x3900, symBinAddr: 0x100004F40, symSize: 0x40 }
  - { offset: 0x19018, size: 0x8, addend: 0x0, symName: __ZNSt3__122__compressed_pair_elemIP8TypeExprLi0ELb0EEC2B8ne180100IP9TypeConstvEEOT_, symObjAddr: 0x3940, symBinAddr: 0x100004F80, symSize: 0x20 }
  - { offset: 0x1905A, size: 0x8, addend: 0x0, symName: __ZNSt3__122__compressed_pair_elemINS_14default_deleteI8TypeExprEELi1ELb1EEC2B8ne180100INS1_I9TypeConstEEvEEOT_, symObjAddr: 0x3960, symBinAddr: 0x100004FA0, symSize: 0x30 }
  - { offset: 0x1909C, size: 0x8, addend: 0x0, symName: __ZNSt3__114default_deleteI8TypeExprEC2B8ne180100I9TypeConstLi0EEERKNS0_IT_EE, symObjAddr: 0x3990, symBinAddr: 0x100004FD0, symSize: 0x10 }
  - { offset: 0x190E0, size: 0x8, addend: 0x0, symName: __ZNSt3__110unique_ptrI9TypeConstNS_14default_deleteIS1_EEED2B8ne180100Ev, symObjAddr: 0x39A0, symBinAddr: 0x100004FE0, symSize: 0x20 }
  - { offset: 0x1910A, size: 0x8, addend: 0x0, symName: __ZNSt3__110unique_ptrI9TypeConstNS_14default_deleteIS1_EEE5resetB8ne180100EPS1_, symObjAddr: 0x39C0, symBinAddr: 0x100005000, symSize: 0x70 }
  - { offset: 0x1914E, size: 0x8, addend: 0x0, symName: __ZNKSt3__114default_deleteI9TypeConstEclB8ne180100EPS1_, symObjAddr: 0x3A30, symBinAddr: 0x100005070, symSize: 0x40 }
  - { offset: 0x19182, size: 0x8, addend: 0x0, symName: __ZN3VarC2ENSt3__112basic_stringIcNS0_11char_traitsIcEENS0_9allocatorIcEEEE, symObjAddr: 0x3A70, symBinAddr: 0x1000050B0, symSize: 0x50 }
  - { offset: 0x191BB, size: 0x8, addend: 0x0, symName: __ZN4ExprC2E14ExpressionType, symObjAddr: 0x3AC0, symBinAddr: 0x100005100, symSize: 0x30 }
  - { offset: 0x191F3, size: 0x8, addend: 0x0, symName: __ZN3VarD1Ev, symObjAddr: 0x3AF0, symBinAddr: 0x100005130, symSize: 0x20 }
  - { offset: 0x1921F, size: 0x8, addend: 0x0, symName: __ZN3VarD0Ev, symObjAddr: 0x3B10, symBinAddr: 0x100005150, symSize: 0x30 }
  - { offset: 0x1924B, size: 0x8, addend: 0x0, symName: __ZNK3Var6acceptER10ASTVisitor, symObjAddr: 0x3B40, symBinAddr: 0x100005180, symSize: 0x30 }
  - { offset: 0x1927F, size: 0x8, addend: 0x0, symName: __ZN4ExprD1Ev, symObjAddr: 0x3B70, symBinAddr: 0x1000051B0, symSize: 0x10 }
  - { offset: 0x192A9, size: 0x8, addend: 0x0, symName: __ZN4ExprD0Ev, symObjAddr: 0x3B80, symBinAddr: 0x1000051C0, symSize: 0x10 }
  - { offset: 0x192D3, size: 0x8, addend: 0x0, symName: __ZN3VarD2Ev, symObjAddr: 0x3B90, symBinAddr: 0x1000051D0, symSize: 0x40 }
  - { offset: 0x192FF, size: 0x8, addend: 0x0, symName: __ZN4ExprD2Ev, symObjAddr: 0x3BD0, symBinAddr: 0x100005210, symSize: 0x10 }
  - { offset: 0x19329, size: 0x8, addend: 0x0, symName: __ZN8FuncCallC2ENSt3__112basic_stringIcNS0_11char_traitsIcEENS0_9allocatorIcEEEENS0_6vectorINS0_10unique_ptrI4ExprNS0_14default_deleteIS9_EEEENS4_ISC_EEEE, symObjAddr: 0x3BE0, symBinAddr: 0x100005220, symSize: 0x70 }
  - { offset: 0x19371, size: 0x8, addend: 0x0, symName: __ZNSt3__16vectorINS_10unique_ptrI4ExprNS_14default_deleteIS2_EEEENS_9allocatorIS5_EEEC1B8ne180100EOS8_, symObjAddr: 0x3C50, symBinAddr: 0x100005290, symSize: 0x30 }
  - { offset: 0x193AC, size: 0x8, addend: 0x0, symName: __ZN8FuncCallD1Ev, symObjAddr: 0x3C80, symBinAddr: 0x1000052C0, symSize: 0x20 }
  - { offset: 0x193D8, size: 0x8, addend: 0x0, symName: __ZN8FuncCallD0Ev, symObjAddr: 0x3CA0, symBinAddr: 0x1000052E0, symSize: 0x30 }
  - { offset: 0x19404, size: 0x8, addend: 0x0, symName: __ZNK8FuncCall6acceptER10ASTVisitor, symObjAddr: 0x3CD0, symBinAddr: 0x100005310, symSize: 0x30 }
  - { offset: 0x19438, size: 0x8, addend: 0x0, symName: __ZNSt3__16vectorINS_10unique_ptrI4ExprNS_14default_deleteIS2_EEEENS_9allocatorIS5_EEEC2B8ne180100EOS8_, symObjAddr: 0x3D00, symBinAddr: 0x100005340, symSize: 0xD0 }
  - { offset: 0x19473, size: 0x8, addend: 0x0, symName: __ZNSt3__16vectorINS_10unique_ptrI4ExprNS_14default_deleteIS2_EEEENS_9allocatorIS5_EEE7__allocB8ne180100Ev, symObjAddr: 0x3DD0, symBinAddr: 0x100005410, symSize: 0x20 }
  - { offset: 0x194A3, size: 0x8, addend: 0x0, symName: __ZNSt3__117__compressed_pairIPNS_10unique_ptrI4ExprNS_14default_deleteIS2_EEEENS_9allocatorIS5_EEEC1B8ne180100IDnS8_EEOT_OT0_, symObjAddr: 0x3DF0, symBinAddr: 0x100005430, symSize: 0x30 }
  - { offset: 0x194FB, size: 0x8, addend: 0x0, symName: __ZNSt3__16vectorINS_10unique_ptrI4ExprNS_14default_deleteIS2_EEEENS_9allocatorIS5_EEE9__end_capB8ne180100Ev, symObjAddr: 0x3E20, symBinAddr: 0x100005460, symSize: 0x20 }
  - { offset: 0x19521, size: 0x8, addend: 0x0, symName: __ZNSt3__117__compressed_pairIPNS_10unique_ptrI4ExprNS_14default_deleteIS2_EEEENS_9allocatorIS5_EEE6secondB8ne180100Ev, symObjAddr: 0x3E40, symBinAddr: 0x100005480, symSize: 0x20 }
  - { offset: 0x19547, size: 0x8, addend: 0x0, symName: __ZNSt3__122__compressed_pair_elemINS_9allocatorINS_10unique_ptrI4ExprNS_14default_deleteIS3_EEEEEELi1ELb1EE5__getB8ne180100Ev, symObjAddr: 0x3E60, symBinAddr: 0x1000054A0, symSize: 0x10 }
  - { offset: 0x1956D, size: 0x8, addend: 0x0, symName: __ZNSt3__117__compressed_pairIPNS_10unique_ptrI4ExprNS_14default_deleteIS2_EEEENS_9allocatorIS5_EEEC2B8ne180100IDnS8_EEOT_OT0_, symObjAddr: 0x3E70, symBinAddr: 0x1000054B0, symSize: 0x40 }
  - { offset: 0x195C5, size: 0x8, addend: 0x0, symName: __ZNSt3__122__compressed_pair_elemIPNS_10unique_ptrI4ExprNS_14default_deleteIS2_EEEELi0ELb0EEC2B8ne180100IDnvEEOT_, symObjAddr: 0x3EB0, symBinAddr: 0x1000054F0, symSize: 0x20 }
  - { offset: 0x19607, size: 0x8, addend: 0x0, symName: __ZNSt3__122__compressed_pair_elemINS_9allocatorINS_10unique_ptrI4ExprNS_14default_deleteIS3_EEEEEELi1ELb1EEC2B8ne180100IS7_vEEOT_, symObjAddr: 0x3ED0, symBinAddr: 0x100005510, symSize: 0x10 }
  - { offset: 0x19649, size: 0x8, addend: 0x0, symName: __ZNSt3__117__compressed_pairIPNS_10unique_ptrI4ExprNS_14default_deleteIS2_EEEENS_9allocatorIS5_EEE5firstB8ne180100Ev, symObjAddr: 0x3EE0, symBinAddr: 0x100005520, symSize: 0x20 }
  - { offset: 0x1966F, size: 0x8, addend: 0x0, symName: __ZNSt3__122__compressed_pair_elemIPNS_10unique_ptrI4ExprNS_14default_deleteIS2_EEEELi0ELb0EE5__getB8ne180100Ev, symObjAddr: 0x3F00, symBinAddr: 0x100005540, symSize: 0x10 }
  - { offset: 0x19695, size: 0x8, addend: 0x0, symName: __ZN8FuncCallD2Ev, symObjAddr: 0x3F10, symBinAddr: 0x100005550, symSize: 0x50 }
  - { offset: 0x196C1, size: 0x8, addend: 0x0, symName: __ZN8ResponseC2E16HTTPResponseCodeNSt3__110unique_ptrI4ExprNS1_14default_deleteIS3_EEEE, symObjAddr: 0x3F60, symBinAddr: 0x1000055A0, symSize: 0x40 }
  - { offset: 0x1970A, size: 0x8, addend: 0x0, symName: __ZNSt3__110unique_ptrI4ExprNS_14default_deleteIS1_EEEC1B8ne180100EOS4_, symObjAddr: 0x3FA0, symBinAddr: 0x1000055E0, symSize: 0x30 }
  - { offset: 0x19742, size: 0x8, addend: 0x0, symName: __ZNSt3__110unique_ptrI4ExprNS_14default_deleteIS1_EEEC2B8ne180100EOS4_, symObjAddr: 0x3FD0, symBinAddr: 0x100005610, symSize: 0x60 }
  - { offset: 0x1977A, size: 0x8, addend: 0x0, symName: __ZNSt3__110unique_ptrI4ExprNS_14default_deleteIS1_EEE7releaseB8ne180100Ev, symObjAddr: 0x4030, symBinAddr: 0x100005670, symSize: 0x40 }
  - { offset: 0x197AF, size: 0x8, addend: 0x0, symName: __ZNSt3__110unique_ptrI4ExprNS_14default_deleteIS1_EEE11get_deleterB8ne180100Ev, symObjAddr: 0x4070, symBinAddr: 0x1000056B0, symSize: 0x20 }
  - { offset: 0x197DF, size: 0x8, addend: 0x0, symName: __ZNSt3__117__compressed_pairIP4ExprNS_14default_deleteIS1_EEEC1B8ne180100IS2_S4_EEOT_OT0_, symObjAddr: 0x4090, symBinAddr: 0x1000056D0, symSize: 0x30 }
  - { offset: 0x19837, size: 0x8, addend: 0x0, symName: __ZNSt3__117__compressed_pairIP4ExprNS_14default_deleteIS1_EEE5firstB8ne180100Ev, symObjAddr: 0x40C0, symBinAddr: 0x100005700, symSize: 0x20 }
  - { offset: 0x1985D, size: 0x8, addend: 0x0, symName: __ZNSt3__122__compressed_pair_elemIP4ExprLi0ELb0EE5__getB8ne180100Ev, symObjAddr: 0x40E0, symBinAddr: 0x100005720, symSize: 0x10 }
  - { offset: 0x19883, size: 0x8, addend: 0x0, symName: __ZNSt3__117__compressed_pairIP4ExprNS_14default_deleteIS1_EEE6secondB8ne180100Ev, symObjAddr: 0x40F0, symBinAddr: 0x100005730, symSize: 0x20 }
  - { offset: 0x198A9, size: 0x8, addend: 0x0, symName: __ZNSt3__122__compressed_pair_elemINS_14default_deleteI4ExprEELi1ELb1EE5__getB8ne180100Ev, symObjAddr: 0x4110, symBinAddr: 0x100005750, symSize: 0x10 }
  - { offset: 0x198CF, size: 0x8, addend: 0x0, symName: __ZNSt3__117__compressed_pairIP4ExprNS_14default_deleteIS1_EEEC2B8ne180100IS2_S4_EEOT_OT0_, symObjAddr: 0x4120, symBinAddr: 0x100005760, symSize: 0x40 }
  - { offset: 0x19927, size: 0x8, addend: 0x0, symName: __ZNSt3__122__compressed_pair_elemIP4ExprLi0ELb0EEC2B8ne180100IS2_vEEOT_, symObjAddr: 0x4160, symBinAddr: 0x1000057A0, symSize: 0x20 }
  - { offset: 0x19969, size: 0x8, addend: 0x0, symName: __ZNSt3__122__compressed_pair_elemINS_14default_deleteI4ExprEELi1ELb1EEC2B8ne180100IS3_vEEOT_, symObjAddr: 0x4180, symBinAddr: 0x1000057C0, symSize: 0x10 }
  - { offset: 0x199AB, size: 0x8, addend: 0x0, symName: __ZN7APIcallC2ENSt3__110unique_ptrI8FuncCallNS0_14default_deleteIS2_EEEE8Response, symObjAddr: 0x4190, symBinAddr: 0x1000057D0, symSize: 0x40 }
  - { offset: 0x199F5, size: 0x8, addend: 0x0, symName: __ZNSt3__110unique_ptrI8FuncCallNS_14default_deleteIS1_EEEC1B8ne180100EOS4_, symObjAddr: 0x41D0, symBinAddr: 0x100005810, symSize: 0x30 }
  - { offset: 0x19A32, size: 0x8, addend: 0x0, symName: __ZN8ResponseC1EOS_, symObjAddr: 0x4200, symBinAddr: 0x100005840, symSize: 0x30 }
  - { offset: 0x19A68, size: 0x8, addend: 0x0, symName: __ZNSt3__110unique_ptrI8FuncCallNS_14default_deleteIS1_EEEC2B8ne180100EOS4_, symObjAddr: 0x4230, symBinAddr: 0x100005870, symSize: 0x60 }
  - { offset: 0x19AA0, size: 0x8, addend: 0x0, symName: __ZNSt3__110unique_ptrI8FuncCallNS_14default_deleteIS1_EEE7releaseB8ne180100Ev, symObjAddr: 0x4290, symBinAddr: 0x1000058D0, symSize: 0x40 }
  - { offset: 0x19AD5, size: 0x8, addend: 0x0, symName: __ZNSt3__110unique_ptrI8FuncCallNS_14default_deleteIS1_EEE11get_deleterB8ne180100Ev, symObjAddr: 0x42D0, symBinAddr: 0x100005910, symSize: 0x20 }
  - { offset: 0x19B05, size: 0x8, addend: 0x0, symName: __ZNSt3__117__compressed_pairIP8FuncCallNS_14default_deleteIS1_EEEC1B8ne180100IS2_S4_EEOT_OT0_, symObjAddr: 0x42F0, symBinAddr: 0x100005930, symSize: 0x30 }
  - { offset: 0x19B5D, size: 0x8, addend: 0x0, symName: __ZNSt3__117__compressed_pairIP8FuncCallNS_14default_deleteIS1_EEE5firstB8ne180100Ev, symObjAddr: 0x4320, symBinAddr: 0x100005960, symSize: 0x20 }
  - { offset: 0x19B83, size: 0x8, addend: 0x0, symName: __ZNSt3__122__compressed_pair_elemIP8FuncCallLi0ELb0EE5__getB8ne180100Ev, symObjAddr: 0x4340, symBinAddr: 0x100005980, symSize: 0x10 }
  - { offset: 0x19BA9, size: 0x8, addend: 0x0, symName: __ZNSt3__117__compressed_pairIP8FuncCallNS_14default_deleteIS1_EEE6secondB8ne180100Ev, symObjAddr: 0x4350, symBinAddr: 0x100005990, symSize: 0x20 }
  - { offset: 0x19BCF, size: 0x8, addend: 0x0, symName: __ZNSt3__122__compressed_pair_elemINS_14default_deleteI8FuncCallEELi1ELb1EE5__getB8ne180100Ev, symObjAddr: 0x4370, symBinAddr: 0x1000059B0, symSize: 0x10 }
  - { offset: 0x19BF5, size: 0x8, addend: 0x0, symName: __ZNSt3__117__compressed_pairIP8FuncCallNS_14default_deleteIS1_EEEC2B8ne180100IS2_S4_EEOT_OT0_, symObjAddr: 0x4380, symBinAddr: 0x1000059C0, symSize: 0x40 }
  - { offset: 0x19C4D, size: 0x8, addend: 0x0, symName: __ZNSt3__122__compressed_pair_elemIP8FuncCallLi0ELb0EEC2B8ne180100IS2_vEEOT_, symObjAddr: 0x43C0, symBinAddr: 0x100005A00, symSize: 0x20 }
  - { offset: 0x19C8F, size: 0x8, addend: 0x0, symName: __ZNSt3__122__compressed_pair_elemINS_14default_deleteI8FuncCallEELi1ELb1EEC2B8ne180100IS3_vEEOT_, symObjAddr: 0x43E0, symBinAddr: 0x100005A20, symSize: 0x10 }
  - { offset: 0x19CD1, size: 0x8, addend: 0x0, symName: __ZN8ResponseC2EOS_, symObjAddr: 0x43F0, symBinAddr: 0x100005A30, symSize: 0x40 }
  - { offset: 0x19D07, size: 0x8, addend: 0x0, symName: __ZN8ResponseD2Ev, symObjAddr: 0x4430, symBinAddr: 0x100005A70, symSize: 0x20 }
  - { offset: 0x19D34, size: 0x8, addend: 0x0, symName: __ZN3APIC2ENSt3__110unique_ptrI4ExprNS0_14default_deleteIS2_EEEENS1_I7APIcallNS3_IS6_EEEE8Response, symObjAddr: 0x4450, symBinAddr: 0x100005A90, symSize: 0x60 }
  - { offset: 0x19D8E, size: 0x8, addend: 0x0, symName: __ZNSt3__110unique_ptrI7APIcallNS_14default_deleteIS1_EEEC1B8ne180100EOS4_, symObjAddr: 0x44B0, symBinAddr: 0x100005AF0, symSize: 0x30 }
  - { offset: 0x19DC6, size: 0x8, addend: 0x0, symName: __ZNSt3__110unique_ptrI7APIcallNS_14default_deleteIS1_EEEC2B8ne180100EOS4_, symObjAddr: 0x44E0, symBinAddr: 0x100005B20, symSize: 0x60 }
  - { offset: 0x19DFE, size: 0x8, addend: 0x0, symName: __ZNSt3__110unique_ptrI7APIcallNS_14default_deleteIS1_EEE7releaseB8ne180100Ev, symObjAddr: 0x4540, symBinAddr: 0x100005B80, symSize: 0x40 }
  - { offset: 0x19E33, size: 0x8, addend: 0x0, symName: __ZNSt3__110unique_ptrI7APIcallNS_14default_deleteIS1_EEE11get_deleterB8ne180100Ev, symObjAddr: 0x4580, symBinAddr: 0x100005BC0, symSize: 0x20 }
  - { offset: 0x19E63, size: 0x8, addend: 0x0, symName: __ZNSt3__117__compressed_pairIP7APIcallNS_14default_deleteIS1_EEEC1B8ne180100IS2_S4_EEOT_OT0_, symObjAddr: 0x45A0, symBinAddr: 0x100005BE0, symSize: 0x30 }
  - { offset: 0x19EBB, size: 0x8, addend: 0x0, symName: __ZNSt3__117__compressed_pairIP7APIcallNS_14default_deleteIS1_EEE5firstB8ne180100Ev, symObjAddr: 0x45D0, symBinAddr: 0x100005C10, symSize: 0x20 }
  - { offset: 0x19EE1, size: 0x8, addend: 0x0, symName: __ZNSt3__122__compressed_pair_elemIP7APIcallLi0ELb0EE5__getB8ne180100Ev, symObjAddr: 0x45F0, symBinAddr: 0x100005C30, symSize: 0x10 }
  - { offset: 0x19F07, size: 0x8, addend: 0x0, symName: __ZNSt3__117__compressed_pairIP7APIcallNS_14default_deleteIS1_EEE6secondB8ne180100Ev, symObjAddr: 0x4600, symBinAddr: 0x100005C40, symSize: 0x20 }
  - { offset: 0x19F2D, size: 0x8, addend: 0x0, symName: __ZNSt3__122__compressed_pair_elemINS_14default_deleteI7APIcallEELi1ELb1EE5__getB8ne180100Ev, symObjAddr: 0x4620, symBinAddr: 0x100005C60, symSize: 0x10 }
  - { offset: 0x19F53, size: 0x8, addend: 0x0, symName: __ZNSt3__117__compressed_pairIP7APIcallNS_14default_deleteIS1_EEEC2B8ne180100IS2_S4_EEOT_OT0_, symObjAddr: 0x4630, symBinAddr: 0x100005C70, symSize: 0x40 }
  - { offset: 0x19FAB, size: 0x8, addend: 0x0, symName: __ZNSt3__122__compressed_pair_elemIP7APIcallLi0ELb0EEC2B8ne180100IS2_vEEOT_, symObjAddr: 0x4670, symBinAddr: 0x100005CB0, symSize: 0x20 }
  - { offset: 0x19FED, size: 0x8, addend: 0x0, symName: __ZNSt3__122__compressed_pair_elemINS_14default_deleteI7APIcallEELi1ELb1EEC2B8ne180100IS3_vEEOT_, symObjAddr: 0x4690, symBinAddr: 0x100005CD0, symSize: 0x10 }
  - { offset: 0x1A02F, size: 0x8, addend: 0x0, symName: __ZL25yy_syntax_error_argumentsPK12yypcontext_tP15yysymbol_kind_ti, symObjAddr: 0x46A0, symBinAddr: 0x100005CE0, symSize: 0xD0 }
  - { offset: 0x1A0A9, size: 0x8, addend: 0x0, symName: __ZL8yystrlenPKc, symObjAddr: 0x4770, symBinAddr: 0x100005DB0, symSize: 0x40 }
  - { offset: 0x1A0E7, size: 0x8, addend: 0x0, symName: __ZL9yytnamerrPcPKc, symObjAddr: 0x47B0, symBinAddr: 0x100005DF0, symSize: 0x150 }
  - { offset: 0x1A174, size: 0x8, addend: 0x0, symName: __ZL26yypcontext_expected_tokensPK12yypcontext_tP15yysymbol_kind_ti, symObjAddr: 0x4900, symBinAddr: 0x100005F40, symSize: 0x180 }
  - { offset: 0x1A22A, size: 0x8, addend: 0x0, symName: __ZL8yystpcpyPcPKc, symObjAddr: 0x4A80, symBinAddr: 0x1000060C0, symSize: 0x60 }
  - { offset: 0x1A286, size: 0x8, addend: 0x0, symName: __ZNSt3__110unique_ptrI8TypeExprNS_14default_deleteIS1_EEED2B8ne180100Ev, symObjAddr: 0x4AE0, symBinAddr: 0x100006120, symSize: 0x20 }
  - { offset: 0x1A2B0, size: 0x8, addend: 0x0, symName: __ZNSt3__110unique_ptrI8TypeExprNS_14default_deleteIS1_EEE5resetB8ne180100EPS1_, symObjAddr: 0x4B00, symBinAddr: 0x100006140, symSize: 0x70 }
  - { offset: 0x1A2F4, size: 0x8, addend: 0x0, symName: __ZNKSt3__114default_deleteI8TypeExprEclB8ne180100EPS1_, symObjAddr: 0x4B70, symBinAddr: 0x1000061B0, symSize: 0x40 }
  - { offset: 0x1A328, size: 0x8, addend: 0x0, symName: __ZNSt3__16vectorINS_10unique_ptrI8TypeExprNS_14default_deleteIS2_EEEENS_9allocatorIS5_EEEC2B8ne180100EOS8_, symObjAddr: 0x4BB0, symBinAddr: 0x1000061F0, symSize: 0xD0 }
  - { offset: 0x1A363, size: 0x8, addend: 0x0, symName: __ZNSt3__16vectorINS_10unique_ptrI8TypeExprNS_14default_deleteIS2_EEEENS_9allocatorIS5_EEE7__allocB8ne180100Ev, symObjAddr: 0x4C80, symBinAddr: 0x1000062C0, symSize: 0x20 }
  - { offset: 0x1A38E, size: 0x8, addend: 0x0, symName: __ZNSt3__117__compressed_pairIPNS_10unique_ptrI8TypeExprNS_14default_deleteIS2_EEEENS_9allocatorIS5_EEEC1B8ne180100IDnS8_EEOT_OT0_, symObjAddr: 0x4CA0, symBinAddr: 0x1000062E0, symSize: 0x30 }
  - { offset: 0x1A3E6, size: 0x8, addend: 0x0, symName: __ZNSt3__16vectorINS_10unique_ptrI8TypeExprNS_14default_deleteIS2_EEEENS_9allocatorIS5_EEE9__end_capB8ne180100Ev, symObjAddr: 0x4CD0, symBinAddr: 0x100006310, symSize: 0x20 }
  - { offset: 0x1A40C, size: 0x8, addend: 0x0, symName: __ZNSt3__117__compressed_pairIPNS_10unique_ptrI8TypeExprNS_14default_deleteIS2_EEEENS_9allocatorIS5_EEE6secondB8ne180100Ev, symObjAddr: 0x4CF0, symBinAddr: 0x100006330, symSize: 0x20 }
  - { offset: 0x1A432, size: 0x8, addend: 0x0, symName: __ZNSt3__122__compressed_pair_elemINS_9allocatorINS_10unique_ptrI8TypeExprNS_14default_deleteIS3_EEEEEELi1ELb1EE5__getB8ne180100Ev, symObjAddr: 0x4D10, symBinAddr: 0x100006350, symSize: 0x10 }
  - { offset: 0x1A458, size: 0x8, addend: 0x0, symName: __ZNSt3__117__compressed_pairIPNS_10unique_ptrI8TypeExprNS_14default_deleteIS2_EEEENS_9allocatorIS5_EEEC2B8ne180100IDnS8_EEOT_OT0_, symObjAddr: 0x4D20, symBinAddr: 0x100006360, symSize: 0x40 }
  - { offset: 0x1A4B0, size: 0x8, addend: 0x0, symName: __ZNSt3__122__compressed_pair_elemIPNS_10unique_ptrI8TypeExprNS_14default_deleteIS2_EEEELi0ELb0EEC2B8ne180100IDnvEEOT_, symObjAddr: 0x4D60, symBinAddr: 0x1000063A0, symSize: 0x20 }
  - { offset: 0x1A4F2, size: 0x8, addend: 0x0, symName: __ZNSt3__122__compressed_pair_elemINS_9allocatorINS_10unique_ptrI8TypeExprNS_14default_deleteIS3_EEEEEELi1ELb1EEC2B8ne180100IS7_vEEOT_, symObjAddr: 0x4D80, symBinAddr: 0x1000063C0, symSize: 0x10 }
  - { offset: 0x1A534, size: 0x8, addend: 0x0, symName: __ZNSt3__117__compressed_pairIPNS_10unique_ptrI8TypeExprNS_14default_deleteIS2_EEEENS_9allocatorIS5_EEE5firstB8ne180100Ev, symObjAddr: 0x4D90, symBinAddr: 0x1000063D0, symSize: 0x20 }
  - { offset: 0x1A55A, size: 0x8, addend: 0x0, symName: __ZNSt3__122__compressed_pair_elemIPNS_10unique_ptrI8TypeExprNS_14default_deleteIS2_EEEELi0ELb0EE5__getB8ne180100Ev, symObjAddr: 0x4DB0, symBinAddr: 0x1000063F0, symSize: 0x10 }
  - { offset: 0x1A580, size: 0x8, addend: 0x0, symName: __ZNSt3__16vectorINS_10unique_ptrI8TypeExprNS_14default_deleteIS2_EEEENS_9allocatorIS5_EEED2B8ne180100Ev, symObjAddr: 0x4DC0, symBinAddr: 0x100006400, symSize: 0x40 }
  - { offset: 0x1A5AA, size: 0x8, addend: 0x0, symName: __ZNSt3__16vectorINS_10unique_ptrI8TypeExprNS_14default_deleteIS2_EEEENS_9allocatorIS5_EEE16__destroy_vectorC1B8ne180100ERS8_, symObjAddr: 0x4E00, symBinAddr: 0x100006440, symSize: 0x30 }
  - { offset: 0x1A5E3, size: 0x8, addend: 0x0, symName: __ZNSt3__16vectorINS_10unique_ptrI8TypeExprNS_14default_deleteIS2_EEEENS_9allocatorIS5_EEE16__destroy_vectorclB8ne180100Ev, symObjAddr: 0x4E30, symBinAddr: 0x100006470, symSize: 0x80 }
  - { offset: 0x1A609, size: 0x8, addend: 0x0, symName: __ZNSt3__16vectorINS_10unique_ptrI8TypeExprNS_14default_deleteIS2_EEEENS_9allocatorIS5_EEE16__destroy_vectorC2B8ne180100ERS8_, symObjAddr: 0x4EB0, symBinAddr: 0x1000064F0, symSize: 0x20 }
  - { offset: 0x1A642, size: 0x8, addend: 0x0, symName: __ZNSt3__16vectorINS_10unique_ptrI8TypeExprNS_14default_deleteIS2_EEEENS_9allocatorIS5_EEE7__clearB8ne180100Ev, symObjAddr: 0x4ED0, symBinAddr: 0x100006510, symSize: 0x20 }
  - { offset: 0x1A668, size: 0x8, addend: 0x0, symName: __ZNKSt3__16vectorINS_10unique_ptrI8TypeExprNS_14default_deleteIS2_EEEENS_9allocatorIS5_EEE17__annotate_deleteB8ne180100Ev, symObjAddr: 0x4EF0, symBinAddr: 0x100006530, symSize: 0x10 }
  - { offset: 0x1A68E, size: 0x8, addend: 0x0, symName: __ZNSt3__116allocator_traitsINS_9allocatorINS_10unique_ptrI8TypeExprNS_14default_deleteIS3_EEEEEEE10deallocateB8ne180100ERS7_PS6_m, symObjAddr: 0x4F00, symBinAddr: 0x100006540, symSize: 0x30 }
  - { offset: 0x1A6D0, size: 0x8, addend: 0x0, symName: __ZNKSt3__16vectorINS_10unique_ptrI8TypeExprNS_14default_deleteIS2_EEEENS_9allocatorIS5_EEE8capacityB8ne180100Ev, symObjAddr: 0x4F30, symBinAddr: 0x100006570, symSize: 0x30 }
  - { offset: 0x1A6F6, size: 0x8, addend: 0x0, symName: __ZNSt3__16vectorINS_10unique_ptrI8TypeExprNS_14default_deleteIS2_EEEENS_9allocatorIS5_EEE22__base_destruct_at_endB8ne180100EPS5_, symObjAddr: 0x4F60, symBinAddr: 0x1000065A0, symSize: 0x80 }
  - { offset: 0x1A73A, size: 0x8, addend: 0x0, symName: __ZNSt3__116allocator_traitsINS_9allocatorINS_10unique_ptrI8TypeExprNS_14default_deleteIS3_EEEEEEE7destroyB8ne180100IS6_vEEvRS7_PT_, symObjAddr: 0x4FE0, symBinAddr: 0x100006620, symSize: 0x30 }
  - { offset: 0x1A777, size: 0x8, addend: 0x0, symName: __ZNSt3__19allocatorINS_10unique_ptrI8TypeExprNS_14default_deleteIS2_EEEEE7destroyB8ne180100EPS5_, symObjAddr: 0x5020, symBinAddr: 0x100006660, symSize: 0x20 }
  - { offset: 0x1A7AB, size: 0x8, addend: 0x0, symName: __ZNSt3__19allocatorINS_10unique_ptrI8TypeExprNS_14default_deleteIS2_EEEEE10deallocateB8ne180100EPS5_m, symObjAddr: 0x5040, symBinAddr: 0x100006680, symSize: 0x40 }
  - { offset: 0x1A7ED, size: 0x8, addend: 0x0, symName: __ZNKSt3__16vectorINS_10unique_ptrI8TypeExprNS_14default_deleteIS2_EEEENS_9allocatorIS5_EEE9__end_capB8ne180100Ev, symObjAddr: 0x50F0, symBinAddr: 0x100006730, symSize: 0x20 }
  - { offset: 0x1A813, size: 0x8, addend: 0x0, symName: __ZNKSt3__117__compressed_pairIPNS_10unique_ptrI8TypeExprNS_14default_deleteIS2_EEEENS_9allocatorIS5_EEE5firstB8ne180100Ev, symObjAddr: 0x5110, symBinAddr: 0x100006750, symSize: 0x20 }
  - { offset: 0x1A839, size: 0x8, addend: 0x0, symName: __ZNKSt3__122__compressed_pair_elemIPNS_10unique_ptrI8TypeExprNS_14default_deleteIS2_EEEELi0ELb0EE5__getB8ne180100Ev, symObjAddr: 0x5130, symBinAddr: 0x100006770, symSize: 0x10 }
  - { offset: 0x1A85F, size: 0x8, addend: 0x0, symName: __ZNSt3__16vectorINS_10unique_ptrI8TypeExprNS_14default_deleteIS2_EEEENS_9allocatorIS5_EEEC2B8ne180100Ev, symObjAddr: 0x5140, symBinAddr: 0x100006780, symSize: 0x50 }
  - { offset: 0x1A88E, size: 0x8, addend: 0x0, symName: __ZNSt3__117__compressed_pairIPNS_10unique_ptrI8TypeExprNS_14default_deleteIS2_EEEENS_9allocatorIS5_EEEC1B8ne180100IDnNS_18__default_init_tagEEEOT_OT0_, symObjAddr: 0x5190, symBinAddr: 0x1000067D0, symSize: 0x30 }
  - { offset: 0x1A8E6, size: 0x8, addend: 0x0, symName: __ZNSt3__117__compressed_pairIPNS_10unique_ptrI8TypeExprNS_14default_deleteIS2_EEEENS_9allocatorIS5_EEEC2B8ne180100IDnNS_18__default_init_tagEEEOT_OT0_, symObjAddr: 0x51C0, symBinAddr: 0x100006800, symSize: 0x40 }
  - { offset: 0x1A93E, size: 0x8, addend: 0x0, symName: __ZNSt3__122__compressed_pair_elemINS_9allocatorINS_10unique_ptrI8TypeExprNS_14default_deleteIS3_EEEEEELi1ELb1EEC2B8ne180100ENS_18__default_init_tagE, symObjAddr: 0x5200, symBinAddr: 0x100006840, symSize: 0x20 }
  - { offset: 0x1A973, size: 0x8, addend: 0x0, symName: __ZNSt3__19allocatorINS_10unique_ptrI8TypeExprNS_14default_deleteIS2_EEEEEC2B8ne180100Ev, symObjAddr: 0x5220, symBinAddr: 0x100006860, symSize: 0x20 }
  - { offset: 0x1A99D, size: 0x8, addend: 0x0, symName: __ZNSt3__116__non_trivial_ifILb1ENS_9allocatorINS_10unique_ptrI8TypeExprNS_14default_deleteIS3_EEEEEEEC2B8ne180100Ev, symObjAddr: 0x5240, symBinAddr: 0x100006880, symSize: 0x10 }
  - { offset: 0x1A9C7, size: 0x8, addend: 0x0, symName: __ZNSt3__16vectorINS_10unique_ptrI8TypeExprNS_14default_deleteIS2_EEEENS_9allocatorIS5_EEE22__construct_one_at_endB8ne180100IJS5_EEEvDpOT_, symObjAddr: 0x5250, symBinAddr: 0x100006890, symSize: 0x90 }
  - { offset: 0x1AA16, size: 0x8, addend: 0x0, symName: __ZNSt3__16vectorINS_10unique_ptrI8TypeExprNS_14default_deleteIS2_EEEENS_9allocatorIS5_EEE21__push_back_slow_pathIS5_EEPS5_OT_, symObjAddr: 0x52E0, symBinAddr: 0x100006920, symSize: 0xE0 }
  - { offset: 0x1AA8D, size: 0x8, addend: 0x0, symName: __ZNSt3__16vectorINS_10unique_ptrI8TypeExprNS_14default_deleteIS2_EEEENS_9allocatorIS5_EEE21_ConstructTransactionC1B8ne180100ERS8_m, symObjAddr: 0x53C0, symBinAddr: 0x100006A00, symSize: 0x30 }
  - { offset: 0x1AAD5, size: 0x8, addend: 0x0, symName: __ZNSt3__116allocator_traitsINS_9allocatorINS_10unique_ptrI8TypeExprNS_14default_deleteIS3_EEEEEEE9constructB8ne180100IS6_JS6_EvEEvRS7_PT_DpOT0_, symObjAddr: 0x53F0, symBinAddr: 0x100006A30, symSize: 0x30 }
  - { offset: 0x1AB2C, size: 0x8, addend: 0x0, symName: __ZNSt3__16vectorINS_10unique_ptrI8TypeExprNS_14default_deleteIS2_EEEENS_9allocatorIS5_EEE21_ConstructTransactionD1B8ne180100Ev, symObjAddr: 0x5420, symBinAddr: 0x100006A60, symSize: 0x20 }
  - { offset: 0x1AB56, size: 0x8, addend: 0x0, symName: __ZNSt3__16vectorINS_10unique_ptrI8TypeExprNS_14default_deleteIS2_EEEENS_9allocatorIS5_EEE21_ConstructTransactionC2B8ne180100ERS8_m, symObjAddr: 0x5440, symBinAddr: 0x100006A80, symSize: 0x40 }
  - { offset: 0x1AB9E, size: 0x8, addend: 0x0, symName: __ZNSt3__19allocatorINS_10unique_ptrI8TypeExprNS_14default_deleteIS2_EEEEE9constructB8ne180100IS5_JS5_EEEvPT_DpOT0_, symObjAddr: 0x5480, symBinAddr: 0x100006AC0, symSize: 0x30 }
  - { offset: 0x1ABF4, size: 0x8, addend: 0x0, symName: __ZNSt3__16vectorINS_10unique_ptrI8TypeExprNS_14default_deleteIS2_EEEENS_9allocatorIS5_EEE21_ConstructTransactionD2B8ne180100Ev, symObjAddr: 0x54B0, symBinAddr: 0x100006AF0, symSize: 0x20 }
  - { offset: 0x1AC1E, size: 0x8, addend: 0x0, symName: __ZNKSt3__16vectorINS_10unique_ptrI8TypeExprNS_14default_deleteIS2_EEEENS_9allocatorIS5_EEE11__recommendB8ne180100Em, symObjAddr: 0x54D0, symBinAddr: 0x100006B10, symSize: 0x90 }
  - { offset: 0x1AC73, size: 0x8, addend: 0x0, symName: __ZNKSt3__16vectorINS_10unique_ptrI8TypeExprNS_14default_deleteIS2_EEEENS_9allocatorIS5_EEE4sizeB8ne180100Ev, symObjAddr: 0x5560, symBinAddr: 0x100006BA0, symSize: 0x20 }
  - { offset: 0x1AC99, size: 0x8, addend: 0x0, symName: __ZNSt3__114__split_bufferINS_10unique_ptrI8TypeExprNS_14default_deleteIS2_EEEERNS_9allocatorIS5_EEEC1EmmS8_, symObjAddr: 0x5580, symBinAddr: 0x100006BC0, symSize: 0x40 }
  - { offset: 0x1ACEF, size: 0x8, addend: 0x0, symName: __ZNSt3__114__split_bufferINS_10unique_ptrI8TypeExprNS_14default_deleteIS2_EEEERNS_9allocatorIS5_EEED1Ev, symObjAddr: 0x56E0, symBinAddr: 0x100006D20, symSize: 0x20 }
  - { offset: 0x1AD1B, size: 0x8, addend: 0x0, symName: __ZNKSt3__16vectorINS_10unique_ptrI8TypeExprNS_14default_deleteIS2_EEEENS_9allocatorIS5_EEE8max_sizeEv, symObjAddr: 0x5700, symBinAddr: 0x100006D40, symSize: 0x60 }
  - { offset: 0x1AD43, size: 0x8, addend: 0x0, symName: __ZNKSt3__16vectorINS_10unique_ptrI8TypeExprNS_14default_deleteIS2_EEEENS_9allocatorIS5_EEE20__throw_length_errorB8ne180100Ev, symObjAddr: 0x5760, symBinAddr: 0x100006DA0, symSize: 0x20 }
  - { offset: 0x1AD73, size: 0x8, addend: 0x0, symName: __ZNSt3__116allocator_traitsINS_9allocatorINS_10unique_ptrI8TypeExprNS_14default_deleteIS3_EEEEEEE8max_sizeB8ne180100IS7_vEEmRKS7_, symObjAddr: 0x57E0, symBinAddr: 0x100006E20, symSize: 0x20 }
  - { offset: 0x1ADA1, size: 0x8, addend: 0x0, symName: __ZNKSt3__16vectorINS_10unique_ptrI8TypeExprNS_14default_deleteIS2_EEEENS_9allocatorIS5_EEE7__allocB8ne180100Ev, symObjAddr: 0x5800, symBinAddr: 0x100006E40, symSize: 0x20 }
  - { offset: 0x1ADC7, size: 0x8, addend: 0x0, symName: __ZNSt3__114numeric_limitsIlE3maxB8ne180100Ev, symObjAddr: 0x5820, symBinAddr: 0x100006E60, symSize: 0x10 }
  - { offset: 0x1ADEF, size: 0x8, addend: 0x0, symName: __ZNKSt3__16__lessIvvEclB8ne180100ImmEEbRKT_RKT0_, symObjAddr: 0x5880, symBinAddr: 0x100006EC0, symSize: 0x30 }
  - { offset: 0x1AE43, size: 0x8, addend: 0x0, symName: __ZNKSt3__19allocatorINS_10unique_ptrI8TypeExprNS_14default_deleteIS2_EEEEE8max_sizeB8ne180100Ev, symObjAddr: 0x58B0, symBinAddr: 0x100006EF0, symSize: 0x20 }
  - { offset: 0x1AE69, size: 0x8, addend: 0x0, symName: __ZNKSt3__117__compressed_pairIPNS_10unique_ptrI8TypeExprNS_14default_deleteIS2_EEEENS_9allocatorIS5_EEE6secondB8ne180100Ev, symObjAddr: 0x58D0, symBinAddr: 0x100006F10, symSize: 0x20 }
  - { offset: 0x1AE8F, size: 0x8, addend: 0x0, symName: __ZNKSt3__122__compressed_pair_elemINS_9allocatorINS_10unique_ptrI8TypeExprNS_14default_deleteIS3_EEEEEELi1ELb1EE5__getB8ne180100Ev, symObjAddr: 0x58F0, symBinAddr: 0x100006F30, symSize: 0x10 }
  - { offset: 0x1AEB5, size: 0x8, addend: 0x0, symName: __ZNSt3__123__libcpp_numeric_limitsIlLb1EE3maxB8ne180100Ev, symObjAddr: 0x5900, symBinAddr: 0x100006F40, symSize: 0x10 }
  - { offset: 0x1AEC9, size: 0x8, addend: 0x0, symName: __ZNSt12length_errorC1B8ne180100EPKc, symObjAddr: 0x5980, symBinAddr: 0x100006FC0, symSize: 0x30 }
  - { offset: 0x1AF01, size: 0x8, addend: 0x0, symName: __ZNSt12length_errorC2B8ne180100EPKc, symObjAddr: 0x59B0, symBinAddr: 0x100006FF0, symSize: 0x40 }
  - { offset: 0x1AF39, size: 0x8, addend: 0x0, symName: __ZNSt3__114__split_bufferINS_10unique_ptrI8TypeExprNS_14default_deleteIS2_EEEERNS_9allocatorIS5_EEEC2EmmS8_, symObjAddr: 0x5A40, symBinAddr: 0x100007080, symSize: 0xD0 }
  - { offset: 0x1AFAD, size: 0x8, addend: 0x0, symName: __ZNSt3__117__compressed_pairIPNS_10unique_ptrI8TypeExprNS_14default_deleteIS2_EEEERNS_9allocatorIS5_EEEC1B8ne180100IDnS9_EEOT_OT0_, symObjAddr: 0x5B10, symBinAddr: 0x100007150, symSize: 0x30 }
  - { offset: 0x1B005, size: 0x8, addend: 0x0, symName: __ZNSt3__114__split_bufferINS_10unique_ptrI8TypeExprNS_14default_deleteIS2_EEEERNS_9allocatorIS5_EEE7__allocB8ne180100Ev, symObjAddr: 0x5B80, symBinAddr: 0x1000071C0, symSize: 0x20 }
  - { offset: 0x1B02B, size: 0x8, addend: 0x0, symName: __ZNSt3__114__split_bufferINS_10unique_ptrI8TypeExprNS_14default_deleteIS2_EEEERNS_9allocatorIS5_EEE9__end_capB8ne180100Ev, symObjAddr: 0x5BA0, symBinAddr: 0x1000071E0, symSize: 0x20 }
  - { offset: 0x1B051, size: 0x8, addend: 0x0, symName: __ZNSt3__117__compressed_pairIPNS_10unique_ptrI8TypeExprNS_14default_deleteIS2_EEEERNS_9allocatorIS5_EEEC2B8ne180100IDnS9_EEOT_OT0_, symObjAddr: 0x5BC0, symBinAddr: 0x100007200, symSize: 0x40 }
  - { offset: 0x1B0A9, size: 0x8, addend: 0x0, symName: __ZNSt3__122__compressed_pair_elemIRNS_9allocatorINS_10unique_ptrI8TypeExprNS_14default_deleteIS3_EEEEEELi1ELb0EEC2B8ne180100IS8_vEEOT_, symObjAddr: 0x5C00, symBinAddr: 0x100007240, symSize: 0x20 }
  - { offset: 0x1B0EB, size: 0x8, addend: 0x0, symName: __ZNSt3__19allocatorINS_10unique_ptrI8TypeExprNS_14default_deleteIS2_EEEEE8allocateB8ne180100Em, symObjAddr: 0x5C20, symBinAddr: 0x100007260, symSize: 0x50 }
  - { offset: 0x1B11F, size: 0x8, addend: 0x0, symName: __ZNSt3__117__compressed_pairIPNS_10unique_ptrI8TypeExprNS_14default_deleteIS2_EEEERNS_9allocatorIS5_EEE6secondB8ne180100Ev, symObjAddr: 0x5CF0, symBinAddr: 0x100007330, symSize: 0x20 }
  - { offset: 0x1B145, size: 0x8, addend: 0x0, symName: __ZNSt3__122__compressed_pair_elemIRNS_9allocatorINS_10unique_ptrI8TypeExprNS_14default_deleteIS3_EEEEEELi1ELb0EE5__getB8ne180100Ev, symObjAddr: 0x5D10, symBinAddr: 0x100007350, symSize: 0x20 }
  - { offset: 0x1B16B, size: 0x8, addend: 0x0, symName: __ZNSt3__117__compressed_pairIPNS_10unique_ptrI8TypeExprNS_14default_deleteIS2_EEEERNS_9allocatorIS5_EEE5firstB8ne180100Ev, symObjAddr: 0x5D30, symBinAddr: 0x100007370, symSize: 0x20 }
  - { offset: 0x1B191, size: 0x8, addend: 0x0, symName: __ZNSt3__116reverse_iteratorIPNS_10unique_ptrI8TypeExprNS_14default_deleteIS2_EEEEEC1B8ne180100ES6_, symObjAddr: 0x5ED0, symBinAddr: 0x100007510, symSize: 0x30 }
  - { offset: 0x1B1C9, size: 0x8, addend: 0x0, symName: __ZNKSt3__116reverse_iteratorIPNS_10unique_ptrI8TypeExprNS_14default_deleteIS2_EEEEE4baseB8ne180100Ev, symObjAddr: 0x5F00, symBinAddr: 0x100007540, symSize: 0x20 }
  - { offset: 0x1B1EF, size: 0x8, addend: 0x0, symName: __ZNKSt3__16vectorINS_10unique_ptrI8TypeExprNS_14default_deleteIS2_EEEENS_9allocatorIS5_EEE14__annotate_newB8ne180100Em, symObjAddr: 0x5F60, symBinAddr: 0x1000075A0, symSize: 0x10 }
  - { offset: 0x1B224, size: 0x8, addend: 0x0, symName: __ZNSt3__129_AllocatorDestroyRangeReverseINS_9allocatorINS_10unique_ptrI8TypeExprNS_14default_deleteIS3_EEEEEENS_16reverse_iteratorIPS6_EEEC1B8ne180100ERS7_RSA_SD_, symObjAddr: 0x5FD0, symBinAddr: 0x100007610, symSize: 0x40 }
  - { offset: 0x1B27B, size: 0x8, addend: 0x0, symName: __ZNKSt3__116reverse_iteratorIPNS_10unique_ptrI8TypeExprNS_14default_deleteIS2_EEEEEdeB8ne180100Ev, symObjAddr: 0x6070, symBinAddr: 0x1000076B0, symSize: 0x30 }
  - { offset: 0x1B2AF, size: 0x8, addend: 0x0, symName: __ZNSt3__116reverse_iteratorIPNS_10unique_ptrI8TypeExprNS_14default_deleteIS2_EEEEEppB8ne180100Ev, symObjAddr: 0x60A0, symBinAddr: 0x1000076E0, symSize: 0x20 }
  - { offset: 0x1B2D5, size: 0x8, addend: 0x0, symName: __ZNSt3__128__exception_guard_exceptionsINS_29_AllocatorDestroyRangeReverseINS_9allocatorINS_10unique_ptrI8TypeExprNS_14default_deleteIS4_EEEEEENS_16reverse_iteratorIPS7_EEEEE10__completeB8ne180100Ev, symObjAddr: 0x60C0, symBinAddr: 0x100007700, symSize: 0x20 }
  - { offset: 0x1B2FB, size: 0x8, addend: 0x0, symName: __ZNSt3__128__exception_guard_exceptionsINS_29_AllocatorDestroyRangeReverseINS_9allocatorINS_10unique_ptrI8TypeExprNS_14default_deleteIS4_EEEEEENS_16reverse_iteratorIPS7_EEEEED1B8ne180100Ev, symObjAddr: 0x60E0, symBinAddr: 0x100007720, symSize: 0x20 }
  - { offset: 0x1B325, size: 0x8, addend: 0x0, symName: __ZNSt3__128__exception_guard_exceptionsINS_29_AllocatorDestroyRangeReverseINS_9allocatorINS_10unique_ptrI8TypeExprNS_14default_deleteIS4_EEEEEENS_16reverse_iteratorIPS7_EEEEEC1B8ne180100ESC_, symObjAddr: 0x6100, symBinAddr: 0x100007740, symSize: 0x40 }
  - { offset: 0x1B35D, size: 0x8, addend: 0x0, symName: __ZNSt3__128__exception_guard_exceptionsINS_29_AllocatorDestroyRangeReverseINS_9allocatorINS_10unique_ptrI8TypeExprNS_14default_deleteIS4_EEEEEENS_16reverse_iteratorIPS7_EEEEEC2B8ne180100ESC_, symObjAddr: 0x6140, symBinAddr: 0x100007780, symSize: 0x30 }
  - { offset: 0x1B395, size: 0x8, addend: 0x0, symName: __ZNSt3__129_AllocatorDestroyRangeReverseINS_9allocatorINS_10unique_ptrI8TypeExprNS_14default_deleteIS3_EEEEEENS_16reverse_iteratorIPS6_EEEC2B8ne180100ERS7_RSA_SD_, symObjAddr: 0x6170, symBinAddr: 0x1000077B0, symSize: 0x40 }
  - { offset: 0x1B3F1, size: 0x8, addend: 0x0, symName: __ZNSt3__119__to_address_helperINS_16reverse_iteratorIPNS_10unique_ptrI8TypeExprNS_14default_deleteIS3_EEEEEEvE6__callB8ne180100ERKS8_, symObjAddr: 0x61B0, symBinAddr: 0x1000077F0, symSize: 0x40 }
  - { offset: 0x1B414, size: 0x8, addend: 0x0, symName: __ZNKSt3__116reverse_iteratorIPNS_10unique_ptrI8TypeExprNS_14default_deleteIS2_EEEEEptB8ne180100Ev, symObjAddr: 0x61F0, symBinAddr: 0x100007830, symSize: 0x20 }
  - { offset: 0x1B43A, size: 0x8, addend: 0x0, symName: __ZNSt3__128__exception_guard_exceptionsINS_29_AllocatorDestroyRangeReverseINS_9allocatorINS_10unique_ptrI8TypeExprNS_14default_deleteIS4_EEEEEENS_16reverse_iteratorIPS7_EEEEED2B8ne180100Ev, symObjAddr: 0x6210, symBinAddr: 0x100007850, symSize: 0x40 }
  - { offset: 0x1B464, size: 0x8, addend: 0x0, symName: __ZNKSt3__129_AllocatorDestroyRangeReverseINS_9allocatorINS_10unique_ptrI8TypeExprNS_14default_deleteIS3_EEEEEENS_16reverse_iteratorIPS6_EEEclB8ne180100Ev, symObjAddr: 0x6250, symBinAddr: 0x100007890, symSize: 0xF0 }
  - { offset: 0x1B48B, size: 0x8, addend: 0x0, symName: __ZNSt3__116reverse_iteratorINS0_IPNS_10unique_ptrI8TypeExprNS_14default_deleteIS2_EEEEEEEC1B8ne180100ES7_, symObjAddr: 0x63B0, symBinAddr: 0x1000079F0, symSize: 0x30 }
  - { offset: 0x1B4C3, size: 0x8, addend: 0x0, symName: __ZNSt3__116reverse_iteratorINS0_IPNS_10unique_ptrI8TypeExprNS_14default_deleteIS2_EEEEEEEppB8ne180100Ev, symObjAddr: 0x6450, symBinAddr: 0x100007A90, symSize: 0x30 }
  - { offset: 0x1B4E9, size: 0x8, addend: 0x0, symName: __ZNKSt3__116reverse_iteratorINS0_IPNS_10unique_ptrI8TypeExprNS_14default_deleteIS2_EEEEEEE4baseB8ne180100Ev, symObjAddr: 0x6480, symBinAddr: 0x100007AC0, symSize: 0x20 }
  - { offset: 0x1B514, size: 0x8, addend: 0x0, symName: __ZNSt3__119__to_address_helperINS_16reverse_iteratorINS1_IPNS_10unique_ptrI8TypeExprNS_14default_deleteIS3_EEEEEEEEvE6__callB8ne180100ERKS9_, symObjAddr: 0x64A0, symBinAddr: 0x100007AE0, symSize: 0x40 }
  - { offset: 0x1B537, size: 0x8, addend: 0x0, symName: __ZNKSt3__116reverse_iteratorINS0_IPNS_10unique_ptrI8TypeExprNS_14default_deleteIS2_EEEEEEEptB8ne180100Ev, symObjAddr: 0x64E0, symBinAddr: 0x100007B20, symSize: 0x20 }
  - { offset: 0x1B55D, size: 0x8, addend: 0x0, symName: __ZNKSt3__116reverse_iteratorINS0_IPNS_10unique_ptrI8TypeExprNS_14default_deleteIS2_EEEEEEEdeB8ne180100Ev, symObjAddr: 0x6500, symBinAddr: 0x100007B40, symSize: 0x40 }
  - { offset: 0x1B591, size: 0x8, addend: 0x0, symName: __ZNSt3__116reverse_iteratorIPNS_10unique_ptrI8TypeExprNS_14default_deleteIS2_EEEEEmmB8ne180100Ev, symObjAddr: 0x6540, symBinAddr: 0x100007B80, symSize: 0x20 }
  - { offset: 0x1B5B7, size: 0x8, addend: 0x0, symName: __ZNSt3__116reverse_iteratorINS0_IPNS_10unique_ptrI8TypeExprNS_14default_deleteIS2_EEEEEEEC2B8ne180100ES7_, symObjAddr: 0x6560, symBinAddr: 0x100007BA0, symSize: 0x40 }
  - { offset: 0x1B5EF, size: 0x8, addend: 0x0, symName: __ZNSt3__116reverse_iteratorIPNS_10unique_ptrI8TypeExprNS_14default_deleteIS2_EEEEEC2B8ne180100ES6_, symObjAddr: 0x65A0, symBinAddr: 0x100007BE0, symSize: 0x30 }
  - { offset: 0x1B627, size: 0x8, addend: 0x0, symName: __ZNSt3__114__split_bufferINS_10unique_ptrI8TypeExprNS_14default_deleteIS2_EEEERNS_9allocatorIS5_EEED2Ev, symObjAddr: 0x65D0, symBinAddr: 0x100007C10, symSize: 0x70 }
  - { offset: 0x1B653, size: 0x8, addend: 0x0, symName: __ZNSt3__114__split_bufferINS_10unique_ptrI8TypeExprNS_14default_deleteIS2_EEEERNS_9allocatorIS5_EEE5clearB8ne180100Ev, symObjAddr: 0x6640, symBinAddr: 0x100007C80, symSize: 0x20 }
  - { offset: 0x1B679, size: 0x8, addend: 0x0, symName: __ZNKSt3__114__split_bufferINS_10unique_ptrI8TypeExprNS_14default_deleteIS2_EEEERNS_9allocatorIS5_EEE8capacityB8ne180100Ev, symObjAddr: 0x6660, symBinAddr: 0x100007CA0, symSize: 0x30 }
  - { offset: 0x1B69F, size: 0x8, addend: 0x0, symName: __ZNSt3__114__split_bufferINS_10unique_ptrI8TypeExprNS_14default_deleteIS2_EEEERNS_9allocatorIS5_EEE17__destruct_at_endB8ne180100EPS5_, symObjAddr: 0x6690, symBinAddr: 0x100007CD0, symSize: 0x30 }
  - { offset: 0x1B6D3, size: 0x8, addend: 0x0, symName: __ZNSt3__114__split_bufferINS_10unique_ptrI8TypeExprNS_14default_deleteIS2_EEEERNS_9allocatorIS5_EEE17__destruct_at_endB8ne180100EPS5_NS_17integral_constantIbLb0EEE, symObjAddr: 0x66C0, symBinAddr: 0x100007D00, symSize: 0x80 }
  - { offset: 0x1B714, size: 0x8, addend: 0x0, symName: __ZNKSt3__114__split_bufferINS_10unique_ptrI8TypeExprNS_14default_deleteIS2_EEEERNS_9allocatorIS5_EEE9__end_capB8ne180100Ev, symObjAddr: 0x6740, symBinAddr: 0x100007D80, symSize: 0x20 }
  - { offset: 0x1B73A, size: 0x8, addend: 0x0, symName: __ZNKSt3__117__compressed_pairIPNS_10unique_ptrI8TypeExprNS_14default_deleteIS2_EEEERNS_9allocatorIS5_EEE5firstB8ne180100Ev, symObjAddr: 0x6760, symBinAddr: 0x100007DA0, symSize: 0x20 }
  - { offset: 0x1B760, size: 0x8, addend: 0x0, symName: __ZNSt3__16vectorINS_10unique_ptrI4ExprNS_14default_deleteIS2_EEEENS_9allocatorIS5_EEED2B8ne180100Ev, symObjAddr: 0x6780, symBinAddr: 0x100007DC0, symSize: 0x40 }
  - { offset: 0x1B78A, size: 0x8, addend: 0x0, symName: __ZNSt3__16vectorINS_10unique_ptrI4ExprNS_14default_deleteIS2_EEEENS_9allocatorIS5_EEE16__destroy_vectorC1B8ne180100ERS8_, symObjAddr: 0x67C0, symBinAddr: 0x100007E00, symSize: 0x30 }
  - { offset: 0x1B7C3, size: 0x8, addend: 0x0, symName: __ZNSt3__16vectorINS_10unique_ptrI4ExprNS_14default_deleteIS2_EEEENS_9allocatorIS5_EEE16__destroy_vectorclB8ne180100Ev, symObjAddr: 0x67F0, symBinAddr: 0x100007E30, symSize: 0x80 }
  - { offset: 0x1B7E9, size: 0x8, addend: 0x0, symName: __ZNSt3__16vectorINS_10unique_ptrI4ExprNS_14default_deleteIS2_EEEENS_9allocatorIS5_EEE16__destroy_vectorC2B8ne180100ERS8_, symObjAddr: 0x6870, symBinAddr: 0x100007EB0, symSize: 0x20 }
  - { offset: 0x1B822, size: 0x8, addend: 0x0, symName: __ZNSt3__16vectorINS_10unique_ptrI4ExprNS_14default_deleteIS2_EEEENS_9allocatorIS5_EEE7__clearB8ne180100Ev, symObjAddr: 0x6890, symBinAddr: 0x100007ED0, symSize: 0x20 }
  - { offset: 0x1B848, size: 0x8, addend: 0x0, symName: __ZNKSt3__16vectorINS_10unique_ptrI4ExprNS_14default_deleteIS2_EEEENS_9allocatorIS5_EEE17__annotate_deleteB8ne180100Ev, symObjAddr: 0x68B0, symBinAddr: 0x100007EF0, symSize: 0x10 }
  - { offset: 0x1B86E, size: 0x8, addend: 0x0, symName: __ZNSt3__116allocator_traitsINS_9allocatorINS_10unique_ptrI4ExprNS_14default_deleteIS3_EEEEEEE10deallocateB8ne180100ERS7_PS6_m, symObjAddr: 0x68C0, symBinAddr: 0x100007F00, symSize: 0x30 }
  - { offset: 0x1B8B0, size: 0x8, addend: 0x0, symName: __ZNKSt3__16vectorINS_10unique_ptrI4ExprNS_14default_deleteIS2_EEEENS_9allocatorIS5_EEE8capacityB8ne180100Ev, symObjAddr: 0x68F0, symBinAddr: 0x100007F30, symSize: 0x30 }
  - { offset: 0x1B8D6, size: 0x8, addend: 0x0, symName: __ZNSt3__16vectorINS_10unique_ptrI4ExprNS_14default_deleteIS2_EEEENS_9allocatorIS5_EEE22__base_destruct_at_endB8ne180100EPS5_, symObjAddr: 0x6920, symBinAddr: 0x100007F60, symSize: 0x80 }
  - { offset: 0x1B91A, size: 0x8, addend: 0x0, symName: __ZNSt3__116allocator_traitsINS_9allocatorINS_10unique_ptrI4ExprNS_14default_deleteIS3_EEEEEEE7destroyB8ne180100IS6_vEEvRS7_PT_, symObjAddr: 0x69A0, symBinAddr: 0x100007FE0, symSize: 0x30 }
  - { offset: 0x1B957, size: 0x8, addend: 0x0, symName: __ZNSt3__19allocatorINS_10unique_ptrI4ExprNS_14default_deleteIS2_EEEEE7destroyB8ne180100EPS5_, symObjAddr: 0x69E0, symBinAddr: 0x100008020, symSize: 0x20 }
  - { offset: 0x1B98B, size: 0x8, addend: 0x0, symName: __ZNSt3__19allocatorINS_10unique_ptrI4ExprNS_14default_deleteIS2_EEEEE10deallocateB8ne180100EPS5_m, symObjAddr: 0x6A00, symBinAddr: 0x100008040, symSize: 0x40 }
  - { offset: 0x1B9CD, size: 0x8, addend: 0x0, symName: __ZNKSt3__16vectorINS_10unique_ptrI4ExprNS_14default_deleteIS2_EEEENS_9allocatorIS5_EEE9__end_capB8ne180100Ev, symObjAddr: 0x6A40, symBinAddr: 0x100008080, symSize: 0x20 }
  - { offset: 0x1B9F3, size: 0x8, addend: 0x0, symName: __ZNKSt3__117__compressed_pairIPNS_10unique_ptrI4ExprNS_14default_deleteIS2_EEEENS_9allocatorIS5_EEE5firstB8ne180100Ev, symObjAddr: 0x6A60, symBinAddr: 0x1000080A0, symSize: 0x20 }
  - { offset: 0x1BA19, size: 0x8, addend: 0x0, symName: __ZNKSt3__122__compressed_pair_elemIPNS_10unique_ptrI4ExprNS_14default_deleteIS2_EEEELi0ELb0EE5__getB8ne180100Ev, symObjAddr: 0x6A80, symBinAddr: 0x1000080C0, symSize: 0x10 }
  - { offset: 0x1BA3F, size: 0x8, addend: 0x0, symName: __ZNSt3__110unique_ptrI4ExprNS_14default_deleteIS1_EEED2B8ne180100Ev, symObjAddr: 0x6A90, symBinAddr: 0x1000080D0, symSize: 0x20 }
  - { offset: 0x1BA69, size: 0x8, addend: 0x0, symName: __ZNSt3__110unique_ptrI4ExprNS_14default_deleteIS1_EEE5resetB8ne180100EPS1_, symObjAddr: 0x6AB0, symBinAddr: 0x1000080F0, symSize: 0x70 }
  - { offset: 0x1BAAD, size: 0x8, addend: 0x0, symName: __ZNKSt3__114default_deleteI4ExprEclB8ne180100EPS1_, symObjAddr: 0x6B20, symBinAddr: 0x100008160, symSize: 0x40 }
  - { offset: 0x1BAE1, size: 0x8, addend: 0x0, symName: __ZNSt3__110unique_ptrI8FuncCallNS_14default_deleteIS1_EEED2B8ne180100Ev, symObjAddr: 0x6B60, symBinAddr: 0x1000081A0, symSize: 0x20 }
  - { offset: 0x1BB0B, size: 0x8, addend: 0x0, symName: __ZNSt3__110unique_ptrI8FuncCallNS_14default_deleteIS1_EEE5resetB8ne180100EPS1_, symObjAddr: 0x6B80, symBinAddr: 0x1000081C0, symSize: 0x70 }
  - { offset: 0x1BB4F, size: 0x8, addend: 0x0, symName: __ZNKSt3__114default_deleteI8FuncCallEclB8ne180100EPS1_, symObjAddr: 0x6BF0, symBinAddr: 0x100008230, symSize: 0x40 }
  - { offset: 0x1BB83, size: 0x8, addend: 0x0, symName: __ZNSt3__110unique_ptrI7APIcallNS_14default_deleteIS1_EEED2B8ne180100Ev, symObjAddr: 0x6C30, symBinAddr: 0x100008270, symSize: 0x20 }
  - { offset: 0x1BBAD, size: 0x8, addend: 0x0, symName: __ZNSt3__110unique_ptrI7APIcallNS_14default_deleteIS1_EEE5resetB8ne180100EPS1_, symObjAddr: 0x6C50, symBinAddr: 0x100008290, symSize: 0x70 }
  - { offset: 0x1BBF1, size: 0x8, addend: 0x0, symName: __ZNKSt3__114default_deleteI7APIcallEclB8ne180100EPS1_, symObjAddr: 0x6CC0, symBinAddr: 0x100008300, symSize: 0x40 }
  - { offset: 0x1BC25, size: 0x8, addend: 0x0, symName: __ZN7APIcallD1Ev, symObjAddr: 0x6D00, symBinAddr: 0x100008340, symSize: 0x20 }
  - { offset: 0x1BC52, size: 0x8, addend: 0x0, symName: __ZN7APIcallD2Ev, symObjAddr: 0x6D20, symBinAddr: 0x100008360, symSize: 0x30 }
  - { offset: 0x1BC7F, size: 0x8, addend: 0x0, symName: __ZNSt3__16vectorINS_10unique_ptrI4DeclNS_14default_deleteIS2_EEEENS_9allocatorIS5_EEEC2B8ne180100EOS8_, symObjAddr: 0x6D50, symBinAddr: 0x100008390, symSize: 0xD0 }
  - { offset: 0x1BCBA, size: 0x8, addend: 0x0, symName: __ZNSt3__16vectorINS_10unique_ptrI4DeclNS_14default_deleteIS2_EEEENS_9allocatorIS5_EEE7__allocB8ne180100Ev, symObjAddr: 0x6E20, symBinAddr: 0x100008460, symSize: 0x20 }
  - { offset: 0x1BCE5, size: 0x8, addend: 0x0, symName: __ZNSt3__117__compressed_pairIPNS_10unique_ptrI4DeclNS_14default_deleteIS2_EEEENS_9allocatorIS5_EEEC1B8ne180100IDnS8_EEOT_OT0_, symObjAddr: 0x6E40, symBinAddr: 0x100008480, symSize: 0x30 }
  - { offset: 0x1BD3D, size: 0x8, addend: 0x0, symName: __ZNSt3__16vectorINS_10unique_ptrI4DeclNS_14default_deleteIS2_EEEENS_9allocatorIS5_EEE9__end_capB8ne180100Ev, symObjAddr: 0x6E70, symBinAddr: 0x1000084B0, symSize: 0x20 }
  - { offset: 0x1BD63, size: 0x8, addend: 0x0, symName: __ZNSt3__117__compressed_pairIPNS_10unique_ptrI4DeclNS_14default_deleteIS2_EEEENS_9allocatorIS5_EEE6secondB8ne180100Ev, symObjAddr: 0x6E90, symBinAddr: 0x1000084D0, symSize: 0x20 }
  - { offset: 0x1BD89, size: 0x8, addend: 0x0, symName: __ZNSt3__122__compressed_pair_elemINS_9allocatorINS_10unique_ptrI4DeclNS_14default_deleteIS3_EEEEEELi1ELb1EE5__getB8ne180100Ev, symObjAddr: 0x6EB0, symBinAddr: 0x1000084F0, symSize: 0x10 }
  - { offset: 0x1BDAF, size: 0x8, addend: 0x0, symName: __ZNSt3__117__compressed_pairIPNS_10unique_ptrI4DeclNS_14default_deleteIS2_EEEENS_9allocatorIS5_EEEC2B8ne180100IDnS8_EEOT_OT0_, symObjAddr: 0x6EC0, symBinAddr: 0x100008500, symSize: 0x40 }
  - { offset: 0x1BE07, size: 0x8, addend: 0x0, symName: __ZNSt3__122__compressed_pair_elemIPNS_10unique_ptrI4DeclNS_14default_deleteIS2_EEEELi0ELb0EEC2B8ne180100IDnvEEOT_, symObjAddr: 0x6F00, symBinAddr: 0x100008540, symSize: 0x20 }
  - { offset: 0x1BE49, size: 0x8, addend: 0x0, symName: __ZNSt3__122__compressed_pair_elemINS_9allocatorINS_10unique_ptrI4DeclNS_14default_deleteIS3_EEEEEELi1ELb1EEC2B8ne180100IS7_vEEOT_, symObjAddr: 0x6F20, symBinAddr: 0x100008560, symSize: 0x10 }
  - { offset: 0x1BE8B, size: 0x8, addend: 0x0, symName: __ZNSt3__117__compressed_pairIPNS_10unique_ptrI4DeclNS_14default_deleteIS2_EEEENS_9allocatorIS5_EEE5firstB8ne180100Ev, symObjAddr: 0x6F30, symBinAddr: 0x100008570, symSize: 0x20 }
  - { offset: 0x1BEB1, size: 0x8, addend: 0x0, symName: __ZNSt3__122__compressed_pair_elemIPNS_10unique_ptrI4DeclNS_14default_deleteIS2_EEEELi0ELb0EE5__getB8ne180100Ev, symObjAddr: 0x6F50, symBinAddr: 0x100008590, symSize: 0x10 }
  - { offset: 0x1BED7, size: 0x8, addend: 0x0, symName: __ZNSt3__16vectorINS_10unique_ptrI4InitNS_14default_deleteIS2_EEEENS_9allocatorIS5_EEEC2B8ne180100EOS8_, symObjAddr: 0x6F60, symBinAddr: 0x1000085A0, symSize: 0xD0 }
  - { offset: 0x1BF12, size: 0x8, addend: 0x0, symName: __ZNSt3__16vectorINS_10unique_ptrI4InitNS_14default_deleteIS2_EEEENS_9allocatorIS5_EEE7__allocB8ne180100Ev, symObjAddr: 0x7030, symBinAddr: 0x100008670, symSize: 0x20 }
  - { offset: 0x1BF3D, size: 0x8, addend: 0x0, symName: __ZNSt3__117__compressed_pairIPNS_10unique_ptrI4InitNS_14default_deleteIS2_EEEENS_9allocatorIS5_EEEC1B8ne180100IDnS8_EEOT_OT0_, symObjAddr: 0x7050, symBinAddr: 0x100008690, symSize: 0x30 }
  - { offset: 0x1BF95, size: 0x8, addend: 0x0, symName: __ZNSt3__16vectorINS_10unique_ptrI4InitNS_14default_deleteIS2_EEEENS_9allocatorIS5_EEE9__end_capB8ne180100Ev, symObjAddr: 0x7080, symBinAddr: 0x1000086C0, symSize: 0x20 }
  - { offset: 0x1BFBB, size: 0x8, addend: 0x0, symName: __ZNSt3__117__compressed_pairIPNS_10unique_ptrI4InitNS_14default_deleteIS2_EEEENS_9allocatorIS5_EEE6secondB8ne180100Ev, symObjAddr: 0x70A0, symBinAddr: 0x1000086E0, symSize: 0x20 }
  - { offset: 0x1BFE1, size: 0x8, addend: 0x0, symName: __ZNSt3__122__compressed_pair_elemINS_9allocatorINS_10unique_ptrI4InitNS_14default_deleteIS3_EEEEEELi1ELb1EE5__getB8ne180100Ev, symObjAddr: 0x70C0, symBinAddr: 0x100008700, symSize: 0x10 }
  - { offset: 0x1C007, size: 0x8, addend: 0x0, symName: __ZNSt3__117__compressed_pairIPNS_10unique_ptrI4InitNS_14default_deleteIS2_EEEENS_9allocatorIS5_EEEC2B8ne180100IDnS8_EEOT_OT0_, symObjAddr: 0x70D0, symBinAddr: 0x100008710, symSize: 0x40 }
  - { offset: 0x1C05F, size: 0x8, addend: 0x0, symName: __ZNSt3__122__compressed_pair_elemIPNS_10unique_ptrI4InitNS_14default_deleteIS2_EEEELi0ELb0EEC2B8ne180100IDnvEEOT_, symObjAddr: 0x7110, symBinAddr: 0x100008750, symSize: 0x20 }
  - { offset: 0x1C0A1, size: 0x8, addend: 0x0, symName: __ZNSt3__122__compressed_pair_elemINS_9allocatorINS_10unique_ptrI4InitNS_14default_deleteIS3_EEEEEELi1ELb1EEC2B8ne180100IS7_vEEOT_, symObjAddr: 0x7130, symBinAddr: 0x100008770, symSize: 0x10 }
  - { offset: 0x1C0E3, size: 0x8, addend: 0x0, symName: __ZNSt3__117__compressed_pairIPNS_10unique_ptrI4InitNS_14default_deleteIS2_EEEENS_9allocatorIS5_EEE5firstB8ne180100Ev, symObjAddr: 0x7140, symBinAddr: 0x100008780, symSize: 0x20 }
  - { offset: 0x1C109, size: 0x8, addend: 0x0, symName: __ZNSt3__122__compressed_pair_elemIPNS_10unique_ptrI4InitNS_14default_deleteIS2_EEEELi0ELb0EE5__getB8ne180100Ev, symObjAddr: 0x7160, symBinAddr: 0x1000087A0, symSize: 0x10 }
  - { offset: 0x1C12F, size: 0x8, addend: 0x0, symName: __ZNSt3__16vectorINS_10unique_ptrI8FuncDeclNS_14default_deleteIS2_EEEENS_9allocatorIS5_EEEC2B8ne180100EOS8_, symObjAddr: 0x7170, symBinAddr: 0x1000087B0, symSize: 0xD0 }
  - { offset: 0x1C16A, size: 0x8, addend: 0x0, symName: __ZNSt3__16vectorINS_10unique_ptrI8FuncDeclNS_14default_deleteIS2_EEEENS_9allocatorIS5_EEE7__allocB8ne180100Ev, symObjAddr: 0x7240, symBinAddr: 0x100008880, symSize: 0x20 }
  - { offset: 0x1C195, size: 0x8, addend: 0x0, symName: __ZNSt3__117__compressed_pairIPNS_10unique_ptrI8FuncDeclNS_14default_deleteIS2_EEEENS_9allocatorIS5_EEEC1B8ne180100IDnS8_EEOT_OT0_, symObjAddr: 0x7260, symBinAddr: 0x1000088A0, symSize: 0x30 }
  - { offset: 0x1C1ED, size: 0x8, addend: 0x0, symName: __ZNSt3__16vectorINS_10unique_ptrI8FuncDeclNS_14default_deleteIS2_EEEENS_9allocatorIS5_EEE9__end_capB8ne180100Ev, symObjAddr: 0x7290, symBinAddr: 0x1000088D0, symSize: 0x20 }
  - { offset: 0x1C213, size: 0x8, addend: 0x0, symName: __ZNSt3__117__compressed_pairIPNS_10unique_ptrI8FuncDeclNS_14default_deleteIS2_EEEENS_9allocatorIS5_EEE6secondB8ne180100Ev, symObjAddr: 0x72B0, symBinAddr: 0x1000088F0, symSize: 0x20 }
  - { offset: 0x1C239, size: 0x8, addend: 0x0, symName: __ZNSt3__122__compressed_pair_elemINS_9allocatorINS_10unique_ptrI8FuncDeclNS_14default_deleteIS3_EEEEEELi1ELb1EE5__getB8ne180100Ev, symObjAddr: 0x72D0, symBinAddr: 0x100008910, symSize: 0x10 }
  - { offset: 0x1C25F, size: 0x8, addend: 0x0, symName: __ZNSt3__117__compressed_pairIPNS_10unique_ptrI8FuncDeclNS_14default_deleteIS2_EEEENS_9allocatorIS5_EEEC2B8ne180100IDnS8_EEOT_OT0_, symObjAddr: 0x72E0, symBinAddr: 0x100008920, symSize: 0x40 }
  - { offset: 0x1C2B7, size: 0x8, addend: 0x0, symName: __ZNSt3__122__compressed_pair_elemIPNS_10unique_ptrI8FuncDeclNS_14default_deleteIS2_EEEELi0ELb0EEC2B8ne180100IDnvEEOT_, symObjAddr: 0x7320, symBinAddr: 0x100008960, symSize: 0x20 }
  - { offset: 0x1C2F9, size: 0x8, addend: 0x0, symName: __ZNSt3__122__compressed_pair_elemINS_9allocatorINS_10unique_ptrI8FuncDeclNS_14default_deleteIS3_EEEEEELi1ELb1EEC2B8ne180100IS7_vEEOT_, symObjAddr: 0x7340, symBinAddr: 0x100008980, symSize: 0x10 }
  - { offset: 0x1C33B, size: 0x8, addend: 0x0, symName: __ZNSt3__117__compressed_pairIPNS_10unique_ptrI8FuncDeclNS_14default_deleteIS2_EEEENS_9allocatorIS5_EEE5firstB8ne180100Ev, symObjAddr: 0x7350, symBinAddr: 0x100008990, symSize: 0x20 }
  - { offset: 0x1C361, size: 0x8, addend: 0x0, symName: __ZNSt3__122__compressed_pair_elemIPNS_10unique_ptrI8FuncDeclNS_14default_deleteIS2_EEEELi0ELb0EE5__getB8ne180100Ev, symObjAddr: 0x7370, symBinAddr: 0x1000089B0, symSize: 0x10 }
  - { offset: 0x1C387, size: 0x8, addend: 0x0, symName: __ZNSt3__16vectorINS_10unique_ptrI3APINS_14default_deleteIS2_EEEENS_9allocatorIS5_EEEC2B8ne180100EOS8_, symObjAddr: 0x7380, symBinAddr: 0x1000089C0, symSize: 0xD0 }
  - { offset: 0x1C3C2, size: 0x8, addend: 0x0, symName: __ZNSt3__16vectorINS_10unique_ptrI3APINS_14default_deleteIS2_EEEENS_9allocatorIS5_EEE7__allocB8ne180100Ev, symObjAddr: 0x7450, symBinAddr: 0x100008A90, symSize: 0x20 }
  - { offset: 0x1C3ED, size: 0x8, addend: 0x0, symName: __ZNSt3__117__compressed_pairIPNS_10unique_ptrI3APINS_14default_deleteIS2_EEEENS_9allocatorIS5_EEEC1B8ne180100IDnS8_EEOT_OT0_, symObjAddr: 0x7470, symBinAddr: 0x100008AB0, symSize: 0x30 }
  - { offset: 0x1C445, size: 0x8, addend: 0x0, symName: __ZNSt3__16vectorINS_10unique_ptrI3APINS_14default_deleteIS2_EEEENS_9allocatorIS5_EEE9__end_capB8ne180100Ev, symObjAddr: 0x74A0, symBinAddr: 0x100008AE0, symSize: 0x20 }
  - { offset: 0x1C46B, size: 0x8, addend: 0x0, symName: __ZNSt3__117__compressed_pairIPNS_10unique_ptrI3APINS_14default_deleteIS2_EEEENS_9allocatorIS5_EEE6secondB8ne180100Ev, symObjAddr: 0x74C0, symBinAddr: 0x100008B00, symSize: 0x20 }
  - { offset: 0x1C491, size: 0x8, addend: 0x0, symName: __ZNSt3__122__compressed_pair_elemINS_9allocatorINS_10unique_ptrI3APINS_14default_deleteIS3_EEEEEELi1ELb1EE5__getB8ne180100Ev, symObjAddr: 0x74E0, symBinAddr: 0x100008B20, symSize: 0x10 }
  - { offset: 0x1C4B7, size: 0x8, addend: 0x0, symName: __ZNSt3__117__compressed_pairIPNS_10unique_ptrI3APINS_14default_deleteIS2_EEEENS_9allocatorIS5_EEEC2B8ne180100IDnS8_EEOT_OT0_, symObjAddr: 0x74F0, symBinAddr: 0x100008B30, symSize: 0x40 }
  - { offset: 0x1C50F, size: 0x8, addend: 0x0, symName: __ZNSt3__122__compressed_pair_elemIPNS_10unique_ptrI3APINS_14default_deleteIS2_EEEELi0ELb0EEC2B8ne180100IDnvEEOT_, symObjAddr: 0x7530, symBinAddr: 0x100008B70, symSize: 0x20 }
  - { offset: 0x1C551, size: 0x8, addend: 0x0, symName: __ZNSt3__122__compressed_pair_elemINS_9allocatorINS_10unique_ptrI3APINS_14default_deleteIS3_EEEEEELi1ELb1EEC2B8ne180100IS7_vEEOT_, symObjAddr: 0x7550, symBinAddr: 0x100008B90, symSize: 0x10 }
  - { offset: 0x1C593, size: 0x8, addend: 0x0, symName: __ZNSt3__117__compressed_pairIPNS_10unique_ptrI3APINS_14default_deleteIS2_EEEENS_9allocatorIS5_EEE5firstB8ne180100Ev, symObjAddr: 0x7560, symBinAddr: 0x100008BA0, symSize: 0x20 }
  - { offset: 0x1C5B9, size: 0x8, addend: 0x0, symName: __ZNSt3__122__compressed_pair_elemIPNS_10unique_ptrI3APINS_14default_deleteIS2_EEEELi0ELb0EE5__getB8ne180100Ev, symObjAddr: 0x7580, symBinAddr: 0x100008BC0, symSize: 0x10 }
  - { offset: 0x1C5DF, size: 0x8, addend: 0x0, symName: __ZNSt3__16vectorINS_10unique_ptrI4DeclNS_14default_deleteIS2_EEEENS_9allocatorIS5_EEED2B8ne180100Ev, symObjAddr: 0x7590, symBinAddr: 0x100008BD0, symSize: 0x40 }
  - { offset: 0x1C609, size: 0x8, addend: 0x0, symName: __ZNSt3__16vectorINS_10unique_ptrI4DeclNS_14default_deleteIS2_EEEENS_9allocatorIS5_EEE16__destroy_vectorC1B8ne180100ERS8_, symObjAddr: 0x75D0, symBinAddr: 0x100008C10, symSize: 0x30 }
  - { offset: 0x1C642, size: 0x8, addend: 0x0, symName: __ZNSt3__16vectorINS_10unique_ptrI4DeclNS_14default_deleteIS2_EEEENS_9allocatorIS5_EEE16__destroy_vectorclB8ne180100Ev, symObjAddr: 0x7600, symBinAddr: 0x100008C40, symSize: 0x80 }
  - { offset: 0x1C668, size: 0x8, addend: 0x0, symName: __ZNSt3__16vectorINS_10unique_ptrI4DeclNS_14default_deleteIS2_EEEENS_9allocatorIS5_EEE16__destroy_vectorC2B8ne180100ERS8_, symObjAddr: 0x7680, symBinAddr: 0x100008CC0, symSize: 0x20 }
  - { offset: 0x1C6A1, size: 0x8, addend: 0x0, symName: __ZNSt3__16vectorINS_10unique_ptrI4DeclNS_14default_deleteIS2_EEEENS_9allocatorIS5_EEE7__clearB8ne180100Ev, symObjAddr: 0x76A0, symBinAddr: 0x100008CE0, symSize: 0x20 }
  - { offset: 0x1C6C7, size: 0x8, addend: 0x0, symName: __ZNKSt3__16vectorINS_10unique_ptrI4DeclNS_14default_deleteIS2_EEEENS_9allocatorIS5_EEE17__annotate_deleteB8ne180100Ev, symObjAddr: 0x76C0, symBinAddr: 0x100008D00, symSize: 0x10 }
  - { offset: 0x1C6ED, size: 0x8, addend: 0x0, symName: __ZNSt3__116allocator_traitsINS_9allocatorINS_10unique_ptrI4DeclNS_14default_deleteIS3_EEEEEEE10deallocateB8ne180100ERS7_PS6_m, symObjAddr: 0x76D0, symBinAddr: 0x100008D10, symSize: 0x30 }
  - { offset: 0x1C72F, size: 0x8, addend: 0x0, symName: __ZNKSt3__16vectorINS_10unique_ptrI4DeclNS_14default_deleteIS2_EEEENS_9allocatorIS5_EEE8capacityB8ne180100Ev, symObjAddr: 0x7700, symBinAddr: 0x100008D40, symSize: 0x30 }
  - { offset: 0x1C755, size: 0x8, addend: 0x0, symName: __ZNSt3__16vectorINS_10unique_ptrI4DeclNS_14default_deleteIS2_EEEENS_9allocatorIS5_EEE22__base_destruct_at_endB8ne180100EPS5_, symObjAddr: 0x7730, symBinAddr: 0x100008D70, symSize: 0x80 }
  - { offset: 0x1C799, size: 0x8, addend: 0x0, symName: __ZNSt3__116allocator_traitsINS_9allocatorINS_10unique_ptrI4DeclNS_14default_deleteIS3_EEEEEEE7destroyB8ne180100IS6_vEEvRS7_PT_, symObjAddr: 0x77B0, symBinAddr: 0x100008DF0, symSize: 0x30 }
  - { offset: 0x1C7D6, size: 0x8, addend: 0x0, symName: __ZNSt3__19allocatorINS_10unique_ptrI4DeclNS_14default_deleteIS2_EEEEE7destroyB8ne180100EPS5_, symObjAddr: 0x77F0, symBinAddr: 0x100008E30, symSize: 0x20 }
  - { offset: 0x1C80A, size: 0x8, addend: 0x0, symName: __ZNSt3__19allocatorINS_10unique_ptrI4DeclNS_14default_deleteIS2_EEEEE10deallocateB8ne180100EPS5_m, symObjAddr: 0x7810, symBinAddr: 0x100008E50, symSize: 0x40 }
  - { offset: 0x1C84C, size: 0x8, addend: 0x0, symName: __ZNKSt3__16vectorINS_10unique_ptrI4DeclNS_14default_deleteIS2_EEEENS_9allocatorIS5_EEE9__end_capB8ne180100Ev, symObjAddr: 0x7850, symBinAddr: 0x100008E90, symSize: 0x20 }
  - { offset: 0x1C872, size: 0x8, addend: 0x0, symName: __ZNKSt3__117__compressed_pairIPNS_10unique_ptrI4DeclNS_14default_deleteIS2_EEEENS_9allocatorIS5_EEE5firstB8ne180100Ev, symObjAddr: 0x7870, symBinAddr: 0x100008EB0, symSize: 0x20 }
  - { offset: 0x1C898, size: 0x8, addend: 0x0, symName: __ZNKSt3__122__compressed_pair_elemIPNS_10unique_ptrI4DeclNS_14default_deleteIS2_EEEELi0ELb0EE5__getB8ne180100Ev, symObjAddr: 0x7890, symBinAddr: 0x100008ED0, symSize: 0x10 }
  - { offset: 0x1C8BE, size: 0x8, addend: 0x0, symName: __ZNSt3__16vectorINS_10unique_ptrI4InitNS_14default_deleteIS2_EEEENS_9allocatorIS5_EEED2B8ne180100Ev, symObjAddr: 0x78A0, symBinAddr: 0x100008EE0, symSize: 0x40 }
  - { offset: 0x1C8E8, size: 0x8, addend: 0x0, symName: __ZNSt3__16vectorINS_10unique_ptrI4InitNS_14default_deleteIS2_EEEENS_9allocatorIS5_EEE16__destroy_vectorC1B8ne180100ERS8_, symObjAddr: 0x78E0, symBinAddr: 0x100008F20, symSize: 0x30 }
  - { offset: 0x1C921, size: 0x8, addend: 0x0, symName: __ZNSt3__16vectorINS_10unique_ptrI4InitNS_14default_deleteIS2_EEEENS_9allocatorIS5_EEE16__destroy_vectorclB8ne180100Ev, symObjAddr: 0x7910, symBinAddr: 0x100008F50, symSize: 0x80 }
  - { offset: 0x1C947, size: 0x8, addend: 0x0, symName: __ZNSt3__16vectorINS_10unique_ptrI4InitNS_14default_deleteIS2_EEEENS_9allocatorIS5_EEE16__destroy_vectorC2B8ne180100ERS8_, symObjAddr: 0x7990, symBinAddr: 0x100008FD0, symSize: 0x20 }
  - { offset: 0x1C980, size: 0x8, addend: 0x0, symName: __ZNSt3__16vectorINS_10unique_ptrI4InitNS_14default_deleteIS2_EEEENS_9allocatorIS5_EEE7__clearB8ne180100Ev, symObjAddr: 0x79B0, symBinAddr: 0x100008FF0, symSize: 0x20 }
  - { offset: 0x1C9A6, size: 0x8, addend: 0x0, symName: __ZNKSt3__16vectorINS_10unique_ptrI4InitNS_14default_deleteIS2_EEEENS_9allocatorIS5_EEE17__annotate_deleteB8ne180100Ev, symObjAddr: 0x79D0, symBinAddr: 0x100009010, symSize: 0x10 }
  - { offset: 0x1C9CC, size: 0x8, addend: 0x0, symName: __ZNSt3__116allocator_traitsINS_9allocatorINS_10unique_ptrI4InitNS_14default_deleteIS3_EEEEEEE10deallocateB8ne180100ERS7_PS6_m, symObjAddr: 0x79E0, symBinAddr: 0x100009020, symSize: 0x30 }
  - { offset: 0x1CA0E, size: 0x8, addend: 0x0, symName: __ZNKSt3__16vectorINS_10unique_ptrI4InitNS_14default_deleteIS2_EEEENS_9allocatorIS5_EEE8capacityB8ne180100Ev, symObjAddr: 0x7A10, symBinAddr: 0x100009050, symSize: 0x30 }
  - { offset: 0x1CA34, size: 0x8, addend: 0x0, symName: __ZNSt3__16vectorINS_10unique_ptrI4InitNS_14default_deleteIS2_EEEENS_9allocatorIS5_EEE22__base_destruct_at_endB8ne180100EPS5_, symObjAddr: 0x7A40, symBinAddr: 0x100009080, symSize: 0x80 }
  - { offset: 0x1CA78, size: 0x8, addend: 0x0, symName: __ZNSt3__116allocator_traitsINS_9allocatorINS_10unique_ptrI4InitNS_14default_deleteIS3_EEEEEEE7destroyB8ne180100IS6_vEEvRS7_PT_, symObjAddr: 0x7AC0, symBinAddr: 0x100009100, symSize: 0x30 }
  - { offset: 0x1CAB5, size: 0x8, addend: 0x0, symName: __ZNSt3__19allocatorINS_10unique_ptrI4InitNS_14default_deleteIS2_EEEEE7destroyB8ne180100EPS5_, symObjAddr: 0x7B00, symBinAddr: 0x100009140, symSize: 0x20 }
  - { offset: 0x1CAE9, size: 0x8, addend: 0x0, symName: __ZNSt3__110unique_ptrI4InitNS_14default_deleteIS1_EEED1B8ne180100Ev, symObjAddr: 0x7B20, symBinAddr: 0x100009160, symSize: 0x20 }
  - { offset: 0x1CB13, size: 0x8, addend: 0x0, symName: __ZNSt3__110unique_ptrI4InitNS_14default_deleteIS1_EEED2B8ne180100Ev, symObjAddr: 0x7B40, symBinAddr: 0x100009180, symSize: 0x20 }
  - { offset: 0x1CB3D, size: 0x8, addend: 0x0, symName: __ZNSt3__110unique_ptrI4InitNS_14default_deleteIS1_EEE5resetB8ne180100EPS1_, symObjAddr: 0x7B60, symBinAddr: 0x1000091A0, symSize: 0x70 }
  - { offset: 0x1CB81, size: 0x8, addend: 0x0, symName: __ZNSt3__117__compressed_pairIP4InitNS_14default_deleteIS1_EEE5firstB8ne180100Ev, symObjAddr: 0x7BD0, symBinAddr: 0x100009210, symSize: 0x20 }
  - { offset: 0x1CBA7, size: 0x8, addend: 0x0, symName: __ZNSt3__117__compressed_pairIP4InitNS_14default_deleteIS1_EEE6secondB8ne180100Ev, symObjAddr: 0x7BF0, symBinAddr: 0x100009230, symSize: 0x20 }
  - { offset: 0x1CBCD, size: 0x8, addend: 0x0, symName: __ZNKSt3__114default_deleteI4InitEclB8ne180100EPS1_, symObjAddr: 0x7C10, symBinAddr: 0x100009250, symSize: 0x40 }
  - { offset: 0x1CC01, size: 0x8, addend: 0x0, symName: __ZNSt3__122__compressed_pair_elemIP4InitLi0ELb0EE5__getB8ne180100Ev, symObjAddr: 0x7C50, symBinAddr: 0x100009290, symSize: 0x10 }
  - { offset: 0x1CC27, size: 0x8, addend: 0x0, symName: __ZNSt3__122__compressed_pair_elemINS_14default_deleteI4InitEELi1ELb1EE5__getB8ne180100Ev, symObjAddr: 0x7C60, symBinAddr: 0x1000092A0, symSize: 0x10 }
  - { offset: 0x1CC4D, size: 0x8, addend: 0x0, symName: __ZN4InitD1Ev, symObjAddr: 0x7C70, symBinAddr: 0x1000092B0, symSize: 0x20 }
  - { offset: 0x1CC7A, size: 0x8, addend: 0x0, symName: __ZN4InitD2Ev, symObjAddr: 0x7C90, symBinAddr: 0x1000092D0, symSize: 0x30 }
  - { offset: 0x1CCA7, size: 0x8, addend: 0x0, symName: __ZNSt3__19allocatorINS_10unique_ptrI4InitNS_14default_deleteIS2_EEEEE10deallocateB8ne180100EPS5_m, symObjAddr: 0x7CC0, symBinAddr: 0x100009300, symSize: 0x40 }
  - { offset: 0x1CCE9, size: 0x8, addend: 0x0, symName: __ZNKSt3__16vectorINS_10unique_ptrI4InitNS_14default_deleteIS2_EEEENS_9allocatorIS5_EEE9__end_capB8ne180100Ev, symObjAddr: 0x7D00, symBinAddr: 0x100009340, symSize: 0x20 }
  - { offset: 0x1CD0F, size: 0x8, addend: 0x0, symName: __ZNKSt3__117__compressed_pairIPNS_10unique_ptrI4InitNS_14default_deleteIS2_EEEENS_9allocatorIS5_EEE5firstB8ne180100Ev, symObjAddr: 0x7D20, symBinAddr: 0x100009360, symSize: 0x20 }
  - { offset: 0x1CD35, size: 0x8, addend: 0x0, symName: __ZNKSt3__122__compressed_pair_elemIPNS_10unique_ptrI4InitNS_14default_deleteIS2_EEEELi0ELb0EE5__getB8ne180100Ev, symObjAddr: 0x7D40, symBinAddr: 0x100009380, symSize: 0x10 }
  - { offset: 0x1CD5B, size: 0x8, addend: 0x0, symName: __ZNSt3__16vectorINS_10unique_ptrI8FuncDeclNS_14default_deleteIS2_EEEENS_9allocatorIS5_EEED2B8ne180100Ev, symObjAddr: 0x7D50, symBinAddr: 0x100009390, symSize: 0x40 }
  - { offset: 0x1CD85, size: 0x8, addend: 0x0, symName: __ZNSt3__16vectorINS_10unique_ptrI8FuncDeclNS_14default_deleteIS2_EEEENS_9allocatorIS5_EEE16__destroy_vectorC1B8ne180100ERS8_, symObjAddr: 0x7D90, symBinAddr: 0x1000093D0, symSize: 0x30 }
  - { offset: 0x1CDBE, size: 0x8, addend: 0x0, symName: __ZNSt3__16vectorINS_10unique_ptrI8FuncDeclNS_14default_deleteIS2_EEEENS_9allocatorIS5_EEE16__destroy_vectorclB8ne180100Ev, symObjAddr: 0x7DC0, symBinAddr: 0x100009400, symSize: 0x80 }
  - { offset: 0x1CDE4, size: 0x8, addend: 0x0, symName: __ZNSt3__16vectorINS_10unique_ptrI8FuncDeclNS_14default_deleteIS2_EEEENS_9allocatorIS5_EEE16__destroy_vectorC2B8ne180100ERS8_, symObjAddr: 0x7E40, symBinAddr: 0x100009480, symSize: 0x20 }
  - { offset: 0x1CE1D, size: 0x8, addend: 0x0, symName: __ZNSt3__16vectorINS_10unique_ptrI8FuncDeclNS_14default_deleteIS2_EEEENS_9allocatorIS5_EEE7__clearB8ne180100Ev, symObjAddr: 0x7E60, symBinAddr: 0x1000094A0, symSize: 0x20 }
  - { offset: 0x1CE43, size: 0x8, addend: 0x0, symName: __ZNKSt3__16vectorINS_10unique_ptrI8FuncDeclNS_14default_deleteIS2_EEEENS_9allocatorIS5_EEE17__annotate_deleteB8ne180100Ev, symObjAddr: 0x7E80, symBinAddr: 0x1000094C0, symSize: 0x10 }
  - { offset: 0x1CE69, size: 0x8, addend: 0x0, symName: __ZNSt3__116allocator_traitsINS_9allocatorINS_10unique_ptrI8FuncDeclNS_14default_deleteIS3_EEEEEEE10deallocateB8ne180100ERS7_PS6_m, symObjAddr: 0x7E90, symBinAddr: 0x1000094D0, symSize: 0x30 }
  - { offset: 0x1CEAB, size: 0x8, addend: 0x0, symName: __ZNKSt3__16vectorINS_10unique_ptrI8FuncDeclNS_14default_deleteIS2_EEEENS_9allocatorIS5_EEE8capacityB8ne180100Ev, symObjAddr: 0x7EC0, symBinAddr: 0x100009500, symSize: 0x30 }
  - { offset: 0x1CED1, size: 0x8, addend: 0x0, symName: __ZNSt3__16vectorINS_10unique_ptrI8FuncDeclNS_14default_deleteIS2_EEEENS_9allocatorIS5_EEE22__base_destruct_at_endB8ne180100EPS5_, symObjAddr: 0x7EF0, symBinAddr: 0x100009530, symSize: 0x80 }
  - { offset: 0x1CF15, size: 0x8, addend: 0x0, symName: __ZNSt3__116allocator_traitsINS_9allocatorINS_10unique_ptrI8FuncDeclNS_14default_deleteIS3_EEEEEEE7destroyB8ne180100IS6_vEEvRS7_PT_, symObjAddr: 0x7F70, symBinAddr: 0x1000095B0, symSize: 0x30 }
  - { offset: 0x1CF52, size: 0x8, addend: 0x0, symName: __ZNSt3__19allocatorINS_10unique_ptrI8FuncDeclNS_14default_deleteIS2_EEEEE7destroyB8ne180100EPS5_, symObjAddr: 0x7FB0, symBinAddr: 0x1000095F0, symSize: 0x20 }
  - { offset: 0x1CF86, size: 0x8, addend: 0x0, symName: __ZNSt3__19allocatorINS_10unique_ptrI8FuncDeclNS_14default_deleteIS2_EEEEE10deallocateB8ne180100EPS5_m, symObjAddr: 0x7FD0, symBinAddr: 0x100009610, symSize: 0x40 }
  - { offset: 0x1CFC8, size: 0x8, addend: 0x0, symName: __ZNKSt3__16vectorINS_10unique_ptrI8FuncDeclNS_14default_deleteIS2_EEEENS_9allocatorIS5_EEE9__end_capB8ne180100Ev, symObjAddr: 0x8010, symBinAddr: 0x100009650, symSize: 0x20 }
  - { offset: 0x1CFEE, size: 0x8, addend: 0x0, symName: __ZNKSt3__117__compressed_pairIPNS_10unique_ptrI8FuncDeclNS_14default_deleteIS2_EEEENS_9allocatorIS5_EEE5firstB8ne180100Ev, symObjAddr: 0x8030, symBinAddr: 0x100009670, symSize: 0x20 }
  - { offset: 0x1D014, size: 0x8, addend: 0x0, symName: __ZNKSt3__122__compressed_pair_elemIPNS_10unique_ptrI8FuncDeclNS_14default_deleteIS2_EEEELi0ELb0EE5__getB8ne180100Ev, symObjAddr: 0x8050, symBinAddr: 0x100009690, symSize: 0x10 }
  - { offset: 0x1D03A, size: 0x8, addend: 0x0, symName: __ZNSt3__16vectorINS_10unique_ptrI3APINS_14default_deleteIS2_EEEENS_9allocatorIS5_EEED2B8ne180100Ev, symObjAddr: 0x8060, symBinAddr: 0x1000096A0, symSize: 0x40 }
  - { offset: 0x1D064, size: 0x8, addend: 0x0, symName: __ZNSt3__16vectorINS_10unique_ptrI3APINS_14default_deleteIS2_EEEENS_9allocatorIS5_EEE16__destroy_vectorC1B8ne180100ERS8_, symObjAddr: 0x80A0, symBinAddr: 0x1000096E0, symSize: 0x30 }
  - { offset: 0x1D09D, size: 0x8, addend: 0x0, symName: __ZNSt3__16vectorINS_10unique_ptrI3APINS_14default_deleteIS2_EEEENS_9allocatorIS5_EEE16__destroy_vectorclB8ne180100Ev, symObjAddr: 0x80D0, symBinAddr: 0x100009710, symSize: 0x80 }
  - { offset: 0x1D0C3, size: 0x8, addend: 0x0, symName: __ZNSt3__16vectorINS_10unique_ptrI3APINS_14default_deleteIS2_EEEENS_9allocatorIS5_EEE16__destroy_vectorC2B8ne180100ERS8_, symObjAddr: 0x8150, symBinAddr: 0x100009790, symSize: 0x20 }
  - { offset: 0x1D0FC, size: 0x8, addend: 0x0, symName: __ZNSt3__16vectorINS_10unique_ptrI3APINS_14default_deleteIS2_EEEENS_9allocatorIS5_EEE7__clearB8ne180100Ev, symObjAddr: 0x8170, symBinAddr: 0x1000097B0, symSize: 0x20 }
  - { offset: 0x1D122, size: 0x8, addend: 0x0, symName: __ZNKSt3__16vectorINS_10unique_ptrI3APINS_14default_deleteIS2_EEEENS_9allocatorIS5_EEE17__annotate_deleteB8ne180100Ev, symObjAddr: 0x8190, symBinAddr: 0x1000097D0, symSize: 0x10 }
  - { offset: 0x1D148, size: 0x8, addend: 0x0, symName: __ZNSt3__116allocator_traitsINS_9allocatorINS_10unique_ptrI3APINS_14default_deleteIS3_EEEEEEE10deallocateB8ne180100ERS7_PS6_m, symObjAddr: 0x81A0, symBinAddr: 0x1000097E0, symSize: 0x30 }
  - { offset: 0x1D18A, size: 0x8, addend: 0x0, symName: __ZNKSt3__16vectorINS_10unique_ptrI3APINS_14default_deleteIS2_EEEENS_9allocatorIS5_EEE8capacityB8ne180100Ev, symObjAddr: 0x81D0, symBinAddr: 0x100009810, symSize: 0x30 }
  - { offset: 0x1D1B0, size: 0x8, addend: 0x0, symName: __ZNSt3__16vectorINS_10unique_ptrI3APINS_14default_deleteIS2_EEEENS_9allocatorIS5_EEE22__base_destruct_at_endB8ne180100EPS5_, symObjAddr: 0x8200, symBinAddr: 0x100009840, symSize: 0x80 }
  - { offset: 0x1D1F4, size: 0x8, addend: 0x0, symName: __ZNSt3__116allocator_traitsINS_9allocatorINS_10unique_ptrI3APINS_14default_deleteIS3_EEEEEEE7destroyB8ne180100IS6_vEEvRS7_PT_, symObjAddr: 0x8280, symBinAddr: 0x1000098C0, symSize: 0x30 }
  - { offset: 0x1D231, size: 0x8, addend: 0x0, symName: __ZNSt3__19allocatorINS_10unique_ptrI3APINS_14default_deleteIS2_EEEEE7destroyB8ne180100EPS5_, symObjAddr: 0x82C0, symBinAddr: 0x100009900, symSize: 0x20 }
  - { offset: 0x1D265, size: 0x8, addend: 0x0, symName: __ZNSt3__19allocatorINS_10unique_ptrI3APINS_14default_deleteIS2_EEEEE10deallocateB8ne180100EPS5_m, symObjAddr: 0x82E0, symBinAddr: 0x100009920, symSize: 0x40 }
  - { offset: 0x1D2A7, size: 0x8, addend: 0x0, symName: __ZNKSt3__16vectorINS_10unique_ptrI3APINS_14default_deleteIS2_EEEENS_9allocatorIS5_EEE9__end_capB8ne180100Ev, symObjAddr: 0x8320, symBinAddr: 0x100009960, symSize: 0x20 }
  - { offset: 0x1D2CD, size: 0x8, addend: 0x0, symName: __ZNKSt3__117__compressed_pairIPNS_10unique_ptrI3APINS_14default_deleteIS2_EEEENS_9allocatorIS5_EEE5firstB8ne180100Ev, symObjAddr: 0x8340, symBinAddr: 0x100009980, symSize: 0x20 }
  - { offset: 0x1D2F3, size: 0x8, addend: 0x0, symName: __ZNKSt3__122__compressed_pair_elemIPNS_10unique_ptrI3APINS_14default_deleteIS2_EEEELi0ELb0EE5__getB8ne180100Ev, symObjAddr: 0x8360, symBinAddr: 0x1000099A0, symSize: 0x10 }
  - { offset: 0x1D319, size: 0x8, addend: 0x0, symName: __ZNSt3__16vectorINS_10unique_ptrI4DeclNS_14default_deleteIS2_EEEENS_9allocatorIS5_EEEC2B8ne180100Ev, symObjAddr: 0x8370, symBinAddr: 0x1000099B0, symSize: 0x50 }
  - { offset: 0x1D343, size: 0x8, addend: 0x0, symName: __ZNSt3__117__compressed_pairIPNS_10unique_ptrI4DeclNS_14default_deleteIS2_EEEENS_9allocatorIS5_EEEC1B8ne180100IDnNS_18__default_init_tagEEEOT_OT0_, symObjAddr: 0x83C0, symBinAddr: 0x100009A00, symSize: 0x30 }
  - { offset: 0x1D39B, size: 0x8, addend: 0x0, symName: __ZNSt3__117__compressed_pairIPNS_10unique_ptrI4DeclNS_14default_deleteIS2_EEEENS_9allocatorIS5_EEEC2B8ne180100IDnNS_18__default_init_tagEEEOT_OT0_, symObjAddr: 0x83F0, symBinAddr: 0x100009A30, symSize: 0x40 }
  - { offset: 0x1D3F3, size: 0x8, addend: 0x0, symName: __ZNSt3__122__compressed_pair_elemINS_9allocatorINS_10unique_ptrI4DeclNS_14default_deleteIS3_EEEEEELi1ELb1EEC2B8ne180100ENS_18__default_init_tagE, symObjAddr: 0x8430, symBinAddr: 0x100009A70, symSize: 0x20 }
  - { offset: 0x1D428, size: 0x8, addend: 0x0, symName: __ZNSt3__19allocatorINS_10unique_ptrI4DeclNS_14default_deleteIS2_EEEEEC2B8ne180100Ev, symObjAddr: 0x8450, symBinAddr: 0x100009A90, symSize: 0x20 }
  - { offset: 0x1D452, size: 0x8, addend: 0x0, symName: __ZNSt3__116__non_trivial_ifILb1ENS_9allocatorINS_10unique_ptrI4DeclNS_14default_deleteIS3_EEEEEEEC2B8ne180100Ev, symObjAddr: 0x8470, symBinAddr: 0x100009AB0, symSize: 0x10 }
  - { offset: 0x1D47C, size: 0x8, addend: 0x0, symName: __ZNSt3__16vectorINS_10unique_ptrI4InitNS_14default_deleteIS2_EEEENS_9allocatorIS5_EEEC2B8ne180100Ev, symObjAddr: 0x8480, symBinAddr: 0x100009AC0, symSize: 0x50 }
  - { offset: 0x1D4A6, size: 0x8, addend: 0x0, symName: __ZNSt3__117__compressed_pairIPNS_10unique_ptrI4InitNS_14default_deleteIS2_EEEENS_9allocatorIS5_EEEC1B8ne180100IDnNS_18__default_init_tagEEEOT_OT0_, symObjAddr: 0x84D0, symBinAddr: 0x100009B10, symSize: 0x30 }
  - { offset: 0x1D4FE, size: 0x8, addend: 0x0, symName: __ZNSt3__117__compressed_pairIPNS_10unique_ptrI4InitNS_14default_deleteIS2_EEEENS_9allocatorIS5_EEEC2B8ne180100IDnNS_18__default_init_tagEEEOT_OT0_, symObjAddr: 0x8500, symBinAddr: 0x100009B40, symSize: 0x40 }
  - { offset: 0x1D556, size: 0x8, addend: 0x0, symName: __ZNSt3__122__compressed_pair_elemINS_9allocatorINS_10unique_ptrI4InitNS_14default_deleteIS3_EEEEEELi1ELb1EEC2B8ne180100ENS_18__default_init_tagE, symObjAddr: 0x8540, symBinAddr: 0x100009B80, symSize: 0x20 }
  - { offset: 0x1D58B, size: 0x8, addend: 0x0, symName: __ZNSt3__19allocatorINS_10unique_ptrI4InitNS_14default_deleteIS2_EEEEEC2B8ne180100Ev, symObjAddr: 0x8560, symBinAddr: 0x100009BA0, symSize: 0x20 }
  - { offset: 0x1D5B5, size: 0x8, addend: 0x0, symName: __ZNSt3__116__non_trivial_ifILb1ENS_9allocatorINS_10unique_ptrI4InitNS_14default_deleteIS3_EEEEEEEC2B8ne180100Ev, symObjAddr: 0x8580, symBinAddr: 0x100009BC0, symSize: 0x10 }
  - { offset: 0x1D5DF, size: 0x8, addend: 0x0, symName: __ZNSt3__16vectorINS_10unique_ptrI8FuncDeclNS_14default_deleteIS2_EEEENS_9allocatorIS5_EEEC2B8ne180100Ev, symObjAddr: 0x8590, symBinAddr: 0x100009BD0, symSize: 0x50 }
  - { offset: 0x1D609, size: 0x8, addend: 0x0, symName: __ZNSt3__117__compressed_pairIPNS_10unique_ptrI8FuncDeclNS_14default_deleteIS2_EEEENS_9allocatorIS5_EEEC1B8ne180100IDnNS_18__default_init_tagEEEOT_OT0_, symObjAddr: 0x85E0, symBinAddr: 0x100009C20, symSize: 0x30 }
  - { offset: 0x1D661, size: 0x8, addend: 0x0, symName: __ZNSt3__117__compressed_pairIPNS_10unique_ptrI8FuncDeclNS_14default_deleteIS2_EEEENS_9allocatorIS5_EEEC2B8ne180100IDnNS_18__default_init_tagEEEOT_OT0_, symObjAddr: 0x8610, symBinAddr: 0x100009C50, symSize: 0x40 }
  - { offset: 0x1D6B9, size: 0x8, addend: 0x0, symName: __ZNSt3__122__compressed_pair_elemINS_9allocatorINS_10unique_ptrI8FuncDeclNS_14default_deleteIS3_EEEEEELi1ELb1EEC2B8ne180100ENS_18__default_init_tagE, symObjAddr: 0x8650, symBinAddr: 0x100009C90, symSize: 0x20 }
  - { offset: 0x1D6EE, size: 0x8, addend: 0x0, symName: __ZNSt3__19allocatorINS_10unique_ptrI8FuncDeclNS_14default_deleteIS2_EEEEEC2B8ne180100Ev, symObjAddr: 0x8670, symBinAddr: 0x100009CB0, symSize: 0x20 }
  - { offset: 0x1D718, size: 0x8, addend: 0x0, symName: __ZNSt3__116__non_trivial_ifILb1ENS_9allocatorINS_10unique_ptrI8FuncDeclNS_14default_deleteIS3_EEEEEEEC2B8ne180100Ev, symObjAddr: 0x8690, symBinAddr: 0x100009CD0, symSize: 0x10 }
  - { offset: 0x1D742, size: 0x8, addend: 0x0, symName: __ZNSt3__16vectorINS_10unique_ptrI3APINS_14default_deleteIS2_EEEENS_9allocatorIS5_EEEC2B8ne180100Ev, symObjAddr: 0x86A0, symBinAddr: 0x100009CE0, symSize: 0x50 }
  - { offset: 0x1D76C, size: 0x8, addend: 0x0, symName: __ZNSt3__117__compressed_pairIPNS_10unique_ptrI3APINS_14default_deleteIS2_EEEENS_9allocatorIS5_EEEC1B8ne180100IDnNS_18__default_init_tagEEEOT_OT0_, symObjAddr: 0x86F0, symBinAddr: 0x100009D30, symSize: 0x30 }
  - { offset: 0x1D7C4, size: 0x8, addend: 0x0, symName: __ZNSt3__117__compressed_pairIPNS_10unique_ptrI3APINS_14default_deleteIS2_EEEENS_9allocatorIS5_EEEC2B8ne180100IDnNS_18__default_init_tagEEEOT_OT0_, symObjAddr: 0x8720, symBinAddr: 0x100009D60, symSize: 0x40 }
  - { offset: 0x1D81C, size: 0x8, addend: 0x0, symName: __ZNSt3__122__compressed_pair_elemINS_9allocatorINS_10unique_ptrI3APINS_14default_deleteIS3_EEEEEELi1ELb1EEC2B8ne180100ENS_18__default_init_tagE, symObjAddr: 0x8760, symBinAddr: 0x100009DA0, symSize: 0x20 }
  - { offset: 0x1D851, size: 0x8, addend: 0x0, symName: __ZNSt3__19allocatorINS_10unique_ptrI3APINS_14default_deleteIS2_EEEEEC2B8ne180100Ev, symObjAddr: 0x8780, symBinAddr: 0x100009DC0, symSize: 0x20 }
  - { offset: 0x1D87B, size: 0x8, addend: 0x0, symName: __ZNSt3__116__non_trivial_ifILb1ENS_9allocatorINS_10unique_ptrI3APINS_14default_deleteIS3_EEEEEEEC2B8ne180100Ev, symObjAddr: 0x87A0, symBinAddr: 0x100009DE0, symSize: 0x10 }
  - { offset: 0x1D8A5, size: 0x8, addend: 0x0, symName: __ZNSt3__110unique_ptrI4DeclNS_14default_deleteIS1_EEEC2B8ne180100ILb1EvEEPS1_, symObjAddr: 0x87B0, symBinAddr: 0x100009DF0, symSize: 0x40 }
  - { offset: 0x1D8E8, size: 0x8, addend: 0x0, symName: __ZNSt3__117__compressed_pairIP4DeclNS_14default_deleteIS1_EEEC1B8ne180100IRS2_NS_16__value_init_tagEEEOT_OT0_, symObjAddr: 0x87F0, symBinAddr: 0x100009E30, symSize: 0x30 }
  - { offset: 0x1D940, size: 0x8, addend: 0x0, symName: __ZNSt3__117__compressed_pairIP4DeclNS_14default_deleteIS1_EEEC2B8ne180100IRS2_NS_16__value_init_tagEEEOT_OT0_, symObjAddr: 0x8820, symBinAddr: 0x100009E60, symSize: 0x40 }
  - { offset: 0x1D998, size: 0x8, addend: 0x0, symName: __ZNSt3__122__compressed_pair_elemIP4DeclLi0ELb0EEC2B8ne180100IRS2_vEEOT_, symObjAddr: 0x8860, symBinAddr: 0x100009EA0, symSize: 0x20 }
  - { offset: 0x1D9DA, size: 0x8, addend: 0x0, symName: __ZNSt3__122__compressed_pair_elemINS_14default_deleteI4DeclEELi1ELb1EEC2B8ne180100ENS_16__value_init_tagE, symObjAddr: 0x8880, symBinAddr: 0x100009EC0, symSize: 0x10 }
  - { offset: 0x1DA0F, size: 0x8, addend: 0x0, symName: __ZNSt3__110unique_ptrI4DeclNS_14default_deleteIS1_EEED2B8ne180100Ev, symObjAddr: 0x8890, symBinAddr: 0x100009ED0, symSize: 0x20 }
  - { offset: 0x1DA39, size: 0x8, addend: 0x0, symName: __ZNSt3__110unique_ptrI4DeclNS_14default_deleteIS1_EEE5resetB8ne180100EPS1_, symObjAddr: 0x88B0, symBinAddr: 0x100009EF0, symSize: 0x70 }
  - { offset: 0x1DA7D, size: 0x8, addend: 0x0, symName: __ZNSt3__117__compressed_pairIP4DeclNS_14default_deleteIS1_EEE5firstB8ne180100Ev, symObjAddr: 0x8920, symBinAddr: 0x100009F60, symSize: 0x20 }
  - { offset: 0x1DAA3, size: 0x8, addend: 0x0, symName: __ZNSt3__117__compressed_pairIP4DeclNS_14default_deleteIS1_EEE6secondB8ne180100Ev, symObjAddr: 0x8940, symBinAddr: 0x100009F80, symSize: 0x20 }
  - { offset: 0x1DAC9, size: 0x8, addend: 0x0, symName: __ZNKSt3__114default_deleteI4DeclEclB8ne180100EPS1_, symObjAddr: 0x8960, symBinAddr: 0x100009FA0, symSize: 0x40 }
  - { offset: 0x1DAFD, size: 0x8, addend: 0x0, symName: __ZNSt3__122__compressed_pair_elemIP4DeclLi0ELb0EE5__getB8ne180100Ev, symObjAddr: 0x89A0, symBinAddr: 0x100009FE0, symSize: 0x10 }
  - { offset: 0x1DB23, size: 0x8, addend: 0x0, symName: __ZNSt3__122__compressed_pair_elemINS_14default_deleteI4DeclEELi1ELb1EE5__getB8ne180100Ev, symObjAddr: 0x89B0, symBinAddr: 0x100009FF0, symSize: 0x10 }
  - { offset: 0x1DB49, size: 0x8, addend: 0x0, symName: __ZNSt3__16vectorINS_10unique_ptrI4DeclNS_14default_deleteIS2_EEEENS_9allocatorIS5_EEE22__construct_one_at_endB8ne180100IJS5_EEEvDpOT_, symObjAddr: 0x89C0, symBinAddr: 0x10000A000, symSize: 0x90 }
  - { offset: 0x1DB98, size: 0x8, addend: 0x0, symName: __ZNSt3__16vectorINS_10unique_ptrI4DeclNS_14default_deleteIS2_EEEENS_9allocatorIS5_EEE21__push_back_slow_pathIS5_EEPS5_OT_, symObjAddr: 0x8A50, symBinAddr: 0x10000A090, symSize: 0xE0 }
  - { offset: 0x1DC0F, size: 0x8, addend: 0x0, symName: __ZNSt3__16vectorINS_10unique_ptrI4DeclNS_14default_deleteIS2_EEEENS_9allocatorIS5_EEE21_ConstructTransactionC1B8ne180100ERS8_m, symObjAddr: 0x8B30, symBinAddr: 0x10000A170, symSize: 0x30 }
  - { offset: 0x1DC57, size: 0x8, addend: 0x0, symName: __ZNSt3__116allocator_traitsINS_9allocatorINS_10unique_ptrI4DeclNS_14default_deleteIS3_EEEEEEE9constructB8ne180100IS6_JS6_EvEEvRS7_PT_DpOT0_, symObjAddr: 0x8B60, symBinAddr: 0x10000A1A0, symSize: 0x30 }
  - { offset: 0x1DCAE, size: 0x8, addend: 0x0, symName: __ZNSt3__16vectorINS_10unique_ptrI4DeclNS_14default_deleteIS2_EEEENS_9allocatorIS5_EEE21_ConstructTransactionD1B8ne180100Ev, symObjAddr: 0x8B90, symBinAddr: 0x10000A1D0, symSize: 0x20 }
  - { offset: 0x1DCD8, size: 0x8, addend: 0x0, symName: __ZNSt3__16vectorINS_10unique_ptrI4DeclNS_14default_deleteIS2_EEEENS_9allocatorIS5_EEE21_ConstructTransactionC2B8ne180100ERS8_m, symObjAddr: 0x8BB0, symBinAddr: 0x10000A1F0, symSize: 0x40 }
  - { offset: 0x1DD20, size: 0x8, addend: 0x0, symName: __ZNSt3__19allocatorINS_10unique_ptrI4DeclNS_14default_deleteIS2_EEEEE9constructB8ne180100IS5_JS5_EEEvPT_DpOT0_, symObjAddr: 0x8BF0, symBinAddr: 0x10000A230, symSize: 0x30 }
  - { offset: 0x1DD76, size: 0x8, addend: 0x0, symName: __ZNSt3__110unique_ptrI4DeclNS_14default_deleteIS1_EEEC1B8ne180100EOS4_, symObjAddr: 0x8C20, symBinAddr: 0x10000A260, symSize: 0x30 }
  - { offset: 0x1DDAE, size: 0x8, addend: 0x0, symName: __ZNSt3__110unique_ptrI4DeclNS_14default_deleteIS1_EEEC2B8ne180100EOS4_, symObjAddr: 0x8C50, symBinAddr: 0x10000A290, symSize: 0x60 }
  - { offset: 0x1DDE6, size: 0x8, addend: 0x0, symName: __ZNSt3__110unique_ptrI4DeclNS_14default_deleteIS1_EEE7releaseB8ne180100Ev, symObjAddr: 0x8CB0, symBinAddr: 0x10000A2F0, symSize: 0x40 }
  - { offset: 0x1DE1B, size: 0x8, addend: 0x0, symName: __ZNSt3__110unique_ptrI4DeclNS_14default_deleteIS1_EEE11get_deleterB8ne180100Ev, symObjAddr: 0x8CF0, symBinAddr: 0x10000A330, symSize: 0x20 }
  - { offset: 0x1DE4B, size: 0x8, addend: 0x0, symName: __ZNSt3__117__compressed_pairIP4DeclNS_14default_deleteIS1_EEEC1B8ne180100IS2_S4_EEOT_OT0_, symObjAddr: 0x8D10, symBinAddr: 0x10000A350, symSize: 0x30 }
  - { offset: 0x1DEA3, size: 0x8, addend: 0x0, symName: __ZNSt3__117__compressed_pairIP4DeclNS_14default_deleteIS1_EEEC2B8ne180100IS2_S4_EEOT_OT0_, symObjAddr: 0x8D40, symBinAddr: 0x10000A380, symSize: 0x40 }
  - { offset: 0x1DEFB, size: 0x8, addend: 0x0, symName: __ZNSt3__122__compressed_pair_elemIP4DeclLi0ELb0EEC2B8ne180100IS2_vEEOT_, symObjAddr: 0x8D80, symBinAddr: 0x10000A3C0, symSize: 0x20 }
  - { offset: 0x1DF3D, size: 0x8, addend: 0x0, symName: __ZNSt3__122__compressed_pair_elemINS_14default_deleteI4DeclEELi1ELb1EEC2B8ne180100IS3_vEEOT_, symObjAddr: 0x8DA0, symBinAddr: 0x10000A3E0, symSize: 0x10 }
  - { offset: 0x1DF7F, size: 0x8, addend: 0x0, symName: __ZNSt3__16vectorINS_10unique_ptrI4DeclNS_14default_deleteIS2_EEEENS_9allocatorIS5_EEE21_ConstructTransactionD2B8ne180100Ev, symObjAddr: 0x8DB0, symBinAddr: 0x10000A3F0, symSize: 0x20 }
  - { offset: 0x1DFA9, size: 0x8, addend: 0x0, symName: __ZNKSt3__16vectorINS_10unique_ptrI4DeclNS_14default_deleteIS2_EEEENS_9allocatorIS5_EEE11__recommendB8ne180100Em, symObjAddr: 0x8DD0, symBinAddr: 0x10000A410, symSize: 0x90 }
  - { offset: 0x1DFFE, size: 0x8, addend: 0x0, symName: __ZNKSt3__16vectorINS_10unique_ptrI4DeclNS_14default_deleteIS2_EEEENS_9allocatorIS5_EEE4sizeB8ne180100Ev, symObjAddr: 0x8E60, symBinAddr: 0x10000A4A0, symSize: 0x20 }
  - { offset: 0x1E024, size: 0x8, addend: 0x0, symName: __ZNSt3__114__split_bufferINS_10unique_ptrI4DeclNS_14default_deleteIS2_EEEERNS_9allocatorIS5_EEEC1EmmS8_, symObjAddr: 0x8E80, symBinAddr: 0x10000A4C0, symSize: 0x40 }
  - { offset: 0x1E07A, size: 0x8, addend: 0x0, symName: __ZNSt3__114__split_bufferINS_10unique_ptrI4DeclNS_14default_deleteIS2_EEEERNS_9allocatorIS5_EEED1Ev, symObjAddr: 0x8FE0, symBinAddr: 0x10000A620, symSize: 0x20 }
  - { offset: 0x1E0A6, size: 0x8, addend: 0x0, symName: __ZNKSt3__16vectorINS_10unique_ptrI4DeclNS_14default_deleteIS2_EEEENS_9allocatorIS5_EEE8max_sizeEv, symObjAddr: 0x9000, symBinAddr: 0x10000A640, symSize: 0x60 }
  - { offset: 0x1E0CE, size: 0x8, addend: 0x0, symName: __ZNKSt3__16vectorINS_10unique_ptrI4DeclNS_14default_deleteIS2_EEEENS_9allocatorIS5_EEE20__throw_length_errorB8ne180100Ev, symObjAddr: 0x9060, symBinAddr: 0x10000A6A0, symSize: 0x20 }
  - { offset: 0x1E0FE, size: 0x8, addend: 0x0, symName: __ZNSt3__116allocator_traitsINS_9allocatorINS_10unique_ptrI4DeclNS_14default_deleteIS3_EEEEEEE8max_sizeB8ne180100IS7_vEEmRKS7_, symObjAddr: 0x9080, symBinAddr: 0x10000A6C0, symSize: 0x20 }
  - { offset: 0x1E12C, size: 0x8, addend: 0x0, symName: __ZNKSt3__16vectorINS_10unique_ptrI4DeclNS_14default_deleteIS2_EEEENS_9allocatorIS5_EEE7__allocB8ne180100Ev, symObjAddr: 0x90A0, symBinAddr: 0x10000A6E0, symSize: 0x20 }
  - { offset: 0x1E152, size: 0x8, addend: 0x0, symName: __ZNKSt3__19allocatorINS_10unique_ptrI4DeclNS_14default_deleteIS2_EEEEE8max_sizeB8ne180100Ev, symObjAddr: 0x90C0, symBinAddr: 0x10000A700, symSize: 0x20 }
  - { offset: 0x1E178, size: 0x8, addend: 0x0, symName: __ZNKSt3__117__compressed_pairIPNS_10unique_ptrI4DeclNS_14default_deleteIS2_EEEENS_9allocatorIS5_EEE6secondB8ne180100Ev, symObjAddr: 0x90E0, symBinAddr: 0x10000A720, symSize: 0x20 }
  - { offset: 0x1E19E, size: 0x8, addend: 0x0, symName: __ZNKSt3__122__compressed_pair_elemINS_9allocatorINS_10unique_ptrI4DeclNS_14default_deleteIS3_EEEEEELi1ELb1EE5__getB8ne180100Ev, symObjAddr: 0x9100, symBinAddr: 0x10000A740, symSize: 0x10 }
  - { offset: 0x1E1C4, size: 0x8, addend: 0x0, symName: __ZNSt3__114__split_bufferINS_10unique_ptrI4DeclNS_14default_deleteIS2_EEEERNS_9allocatorIS5_EEEC2EmmS8_, symObjAddr: 0x9110, symBinAddr: 0x10000A750, symSize: 0xD0 }
  - { offset: 0x1E238, size: 0x8, addend: 0x0, symName: __ZNSt3__117__compressed_pairIPNS_10unique_ptrI4DeclNS_14default_deleteIS2_EEEERNS_9allocatorIS5_EEEC1B8ne180100IDnS9_EEOT_OT0_, symObjAddr: 0x91E0, symBinAddr: 0x10000A820, symSize: 0x30 }
  - { offset: 0x1E290, size: 0x8, addend: 0x0, symName: __ZNSt3__114__split_bufferINS_10unique_ptrI4DeclNS_14default_deleteIS2_EEEERNS_9allocatorIS5_EEE7__allocB8ne180100Ev, symObjAddr: 0x9250, symBinAddr: 0x10000A890, symSize: 0x20 }
  - { offset: 0x1E2B6, size: 0x8, addend: 0x0, symName: __ZNSt3__114__split_bufferINS_10unique_ptrI4DeclNS_14default_deleteIS2_EEEERNS_9allocatorIS5_EEE9__end_capB8ne180100Ev, symObjAddr: 0x9270, symBinAddr: 0x10000A8B0, symSize: 0x20 }
  - { offset: 0x1E2DC, size: 0x8, addend: 0x0, symName: __ZNSt3__117__compressed_pairIPNS_10unique_ptrI4DeclNS_14default_deleteIS2_EEEERNS_9allocatorIS5_EEEC2B8ne180100IDnS9_EEOT_OT0_, symObjAddr: 0x9290, symBinAddr: 0x10000A8D0, symSize: 0x40 }
  - { offset: 0x1E334, size: 0x8, addend: 0x0, symName: __ZNSt3__122__compressed_pair_elemIRNS_9allocatorINS_10unique_ptrI4DeclNS_14default_deleteIS3_EEEEEELi1ELb0EEC2B8ne180100IS8_vEEOT_, symObjAddr: 0x92D0, symBinAddr: 0x10000A910, symSize: 0x20 }
  - { offset: 0x1E376, size: 0x8, addend: 0x0, symName: __ZNSt3__19allocatorINS_10unique_ptrI4DeclNS_14default_deleteIS2_EEEEE8allocateB8ne180100Em, symObjAddr: 0x92F0, symBinAddr: 0x10000A930, symSize: 0x50 }
  - { offset: 0x1E3AA, size: 0x8, addend: 0x0, symName: __ZNSt3__117__compressed_pairIPNS_10unique_ptrI4DeclNS_14default_deleteIS2_EEEERNS_9allocatorIS5_EEE6secondB8ne180100Ev, symObjAddr: 0x9340, symBinAddr: 0x10000A980, symSize: 0x20 }
  - { offset: 0x1E3D0, size: 0x8, addend: 0x0, symName: __ZNSt3__122__compressed_pair_elemIRNS_9allocatorINS_10unique_ptrI4DeclNS_14default_deleteIS3_EEEEEELi1ELb0EE5__getB8ne180100Ev, symObjAddr: 0x9360, symBinAddr: 0x10000A9A0, symSize: 0x20 }
  - { offset: 0x1E3F6, size: 0x8, addend: 0x0, symName: __ZNSt3__117__compressed_pairIPNS_10unique_ptrI4DeclNS_14default_deleteIS2_EEEERNS_9allocatorIS5_EEE5firstB8ne180100Ev, symObjAddr: 0x9380, symBinAddr: 0x10000A9C0, symSize: 0x20 }
  - { offset: 0x1E41C, size: 0x8, addend: 0x0, symName: __ZNSt3__116reverse_iteratorIPNS_10unique_ptrI4DeclNS_14default_deleteIS2_EEEEEC1B8ne180100ES6_, symObjAddr: 0x9520, symBinAddr: 0x10000AB60, symSize: 0x30 }
  - { offset: 0x1E454, size: 0x8, addend: 0x0, symName: __ZNKSt3__116reverse_iteratorIPNS_10unique_ptrI4DeclNS_14default_deleteIS2_EEEEE4baseB8ne180100Ev, symObjAddr: 0x9550, symBinAddr: 0x10000AB90, symSize: 0x20 }
  - { offset: 0x1E47A, size: 0x8, addend: 0x0, symName: __ZNKSt3__16vectorINS_10unique_ptrI4DeclNS_14default_deleteIS2_EEEENS_9allocatorIS5_EEE14__annotate_newB8ne180100Em, symObjAddr: 0x95B0, symBinAddr: 0x10000ABF0, symSize: 0x10 }
  - { offset: 0x1E4AF, size: 0x8, addend: 0x0, symName: __ZNSt3__129_AllocatorDestroyRangeReverseINS_9allocatorINS_10unique_ptrI4DeclNS_14default_deleteIS3_EEEEEENS_16reverse_iteratorIPS6_EEEC1B8ne180100ERS7_RSA_SD_, symObjAddr: 0x9620, symBinAddr: 0x10000AC60, symSize: 0x40 }
  - { offset: 0x1E506, size: 0x8, addend: 0x0, symName: __ZNKSt3__116reverse_iteratorIPNS_10unique_ptrI4DeclNS_14default_deleteIS2_EEEEEdeB8ne180100Ev, symObjAddr: 0x96C0, symBinAddr: 0x10000AD00, symSize: 0x30 }
  - { offset: 0x1E53A, size: 0x8, addend: 0x0, symName: __ZNSt3__116reverse_iteratorIPNS_10unique_ptrI4DeclNS_14default_deleteIS2_EEEEEppB8ne180100Ev, symObjAddr: 0x96F0, symBinAddr: 0x10000AD30, symSize: 0x20 }
  - { offset: 0x1E560, size: 0x8, addend: 0x0, symName: __ZNSt3__128__exception_guard_exceptionsINS_29_AllocatorDestroyRangeReverseINS_9allocatorINS_10unique_ptrI4DeclNS_14default_deleteIS4_EEEEEENS_16reverse_iteratorIPS7_EEEEE10__completeB8ne180100Ev, symObjAddr: 0x9710, symBinAddr: 0x10000AD50, symSize: 0x20 }
  - { offset: 0x1E586, size: 0x8, addend: 0x0, symName: __ZNSt3__128__exception_guard_exceptionsINS_29_AllocatorDestroyRangeReverseINS_9allocatorINS_10unique_ptrI4DeclNS_14default_deleteIS4_EEEEEENS_16reverse_iteratorIPS7_EEEEED1B8ne180100Ev, symObjAddr: 0x9730, symBinAddr: 0x10000AD70, symSize: 0x20 }
  - { offset: 0x1E5B0, size: 0x8, addend: 0x0, symName: __ZNSt3__128__exception_guard_exceptionsINS_29_AllocatorDestroyRangeReverseINS_9allocatorINS_10unique_ptrI4DeclNS_14default_deleteIS4_EEEEEENS_16reverse_iteratorIPS7_EEEEEC1B8ne180100ESC_, symObjAddr: 0x9750, symBinAddr: 0x10000AD90, symSize: 0x40 }
  - { offset: 0x1E5E8, size: 0x8, addend: 0x0, symName: __ZNSt3__128__exception_guard_exceptionsINS_29_AllocatorDestroyRangeReverseINS_9allocatorINS_10unique_ptrI4DeclNS_14default_deleteIS4_EEEEEENS_16reverse_iteratorIPS7_EEEEEC2B8ne180100ESC_, symObjAddr: 0x9790, symBinAddr: 0x10000ADD0, symSize: 0x30 }
  - { offset: 0x1E620, size: 0x8, addend: 0x0, symName: __ZNSt3__129_AllocatorDestroyRangeReverseINS_9allocatorINS_10unique_ptrI4DeclNS_14default_deleteIS3_EEEEEENS_16reverse_iteratorIPS6_EEEC2B8ne180100ERS7_RSA_SD_, symObjAddr: 0x97C0, symBinAddr: 0x10000AE00, symSize: 0x40 }
  - { offset: 0x1E67C, size: 0x8, addend: 0x0, symName: __ZNSt3__119__to_address_helperINS_16reverse_iteratorIPNS_10unique_ptrI4DeclNS_14default_deleteIS3_EEEEEEvE6__callB8ne180100ERKS8_, symObjAddr: 0x9800, symBinAddr: 0x10000AE40, symSize: 0x40 }
  - { offset: 0x1E69F, size: 0x8, addend: 0x0, symName: __ZNKSt3__116reverse_iteratorIPNS_10unique_ptrI4DeclNS_14default_deleteIS2_EEEEEptB8ne180100Ev, symObjAddr: 0x9840, symBinAddr: 0x10000AE80, symSize: 0x20 }
  - { offset: 0x1E6C5, size: 0x8, addend: 0x0, symName: __ZNSt3__128__exception_guard_exceptionsINS_29_AllocatorDestroyRangeReverseINS_9allocatorINS_10unique_ptrI4DeclNS_14default_deleteIS4_EEEEEENS_16reverse_iteratorIPS7_EEEEED2B8ne180100Ev, symObjAddr: 0x9860, symBinAddr: 0x10000AEA0, symSize: 0x40 }
  - { offset: 0x1E6EF, size: 0x8, addend: 0x0, symName: __ZNKSt3__129_AllocatorDestroyRangeReverseINS_9allocatorINS_10unique_ptrI4DeclNS_14default_deleteIS3_EEEEEENS_16reverse_iteratorIPS6_EEEclB8ne180100Ev, symObjAddr: 0x98A0, symBinAddr: 0x10000AEE0, symSize: 0xF0 }
  - { offset: 0x1E716, size: 0x8, addend: 0x0, symName: __ZNSt3__116reverse_iteratorINS0_IPNS_10unique_ptrI4DeclNS_14default_deleteIS2_EEEEEEEC1B8ne180100ES7_, symObjAddr: 0x9A00, symBinAddr: 0x10000B040, symSize: 0x30 }
  - { offset: 0x1E74E, size: 0x8, addend: 0x0, symName: __ZNSt3__116reverse_iteratorINS0_IPNS_10unique_ptrI4DeclNS_14default_deleteIS2_EEEEEEEppB8ne180100Ev, symObjAddr: 0x9AA0, symBinAddr: 0x10000B0E0, symSize: 0x30 }
  - { offset: 0x1E774, size: 0x8, addend: 0x0, symName: __ZNKSt3__116reverse_iteratorINS0_IPNS_10unique_ptrI4DeclNS_14default_deleteIS2_EEEEEEE4baseB8ne180100Ev, symObjAddr: 0x9AD0, symBinAddr: 0x10000B110, symSize: 0x20 }
  - { offset: 0x1E79F, size: 0x8, addend: 0x0, symName: __ZNSt3__119__to_address_helperINS_16reverse_iteratorINS1_IPNS_10unique_ptrI4DeclNS_14default_deleteIS3_EEEEEEEEvE6__callB8ne180100ERKS9_, symObjAddr: 0x9AF0, symBinAddr: 0x10000B130, symSize: 0x40 }
  - { offset: 0x1E7C2, size: 0x8, addend: 0x0, symName: __ZNKSt3__116reverse_iteratorINS0_IPNS_10unique_ptrI4DeclNS_14default_deleteIS2_EEEEEEEptB8ne180100Ev, symObjAddr: 0x9B30, symBinAddr: 0x10000B170, symSize: 0x20 }
  - { offset: 0x1E7E8, size: 0x8, addend: 0x0, symName: __ZNKSt3__116reverse_iteratorINS0_IPNS_10unique_ptrI4DeclNS_14default_deleteIS2_EEEEEEEdeB8ne180100Ev, symObjAddr: 0x9B50, symBinAddr: 0x10000B190, symSize: 0x40 }
  - { offset: 0x1E81C, size: 0x8, addend: 0x0, symName: __ZNSt3__116reverse_iteratorIPNS_10unique_ptrI4DeclNS_14default_deleteIS2_EEEEEmmB8ne180100Ev, symObjAddr: 0x9B90, symBinAddr: 0x10000B1D0, symSize: 0x20 }
  - { offset: 0x1E842, size: 0x8, addend: 0x0, symName: __ZNSt3__116reverse_iteratorINS0_IPNS_10unique_ptrI4DeclNS_14default_deleteIS2_EEEEEEEC2B8ne180100ES7_, symObjAddr: 0x9BB0, symBinAddr: 0x10000B1F0, symSize: 0x40 }
  - { offset: 0x1E87A, size: 0x8, addend: 0x0, symName: __ZNSt3__116reverse_iteratorIPNS_10unique_ptrI4DeclNS_14default_deleteIS2_EEEEEC2B8ne180100ES6_, symObjAddr: 0x9BF0, symBinAddr: 0x10000B230, symSize: 0x30 }
  - { offset: 0x1E8B2, size: 0x8, addend: 0x0, symName: __ZNSt3__114__split_bufferINS_10unique_ptrI4DeclNS_14default_deleteIS2_EEEERNS_9allocatorIS5_EEED2Ev, symObjAddr: 0x9C20, symBinAddr: 0x10000B260, symSize: 0x70 }
  - { offset: 0x1E8DE, size: 0x8, addend: 0x0, symName: __ZNSt3__114__split_bufferINS_10unique_ptrI4DeclNS_14default_deleteIS2_EEEERNS_9allocatorIS5_EEE5clearB8ne180100Ev, symObjAddr: 0x9C90, symBinAddr: 0x10000B2D0, symSize: 0x20 }
  - { offset: 0x1E904, size: 0x8, addend: 0x0, symName: __ZNKSt3__114__split_bufferINS_10unique_ptrI4DeclNS_14default_deleteIS2_EEEERNS_9allocatorIS5_EEE8capacityB8ne180100Ev, symObjAddr: 0x9CB0, symBinAddr: 0x10000B2F0, symSize: 0x30 }
  - { offset: 0x1E92A, size: 0x8, addend: 0x0, symName: __ZNSt3__114__split_bufferINS_10unique_ptrI4DeclNS_14default_deleteIS2_EEEERNS_9allocatorIS5_EEE17__destruct_at_endB8ne180100EPS5_, symObjAddr: 0x9CE0, symBinAddr: 0x10000B320, symSize: 0x30 }
  - { offset: 0x1E95E, size: 0x8, addend: 0x0, symName: __ZNSt3__114__split_bufferINS_10unique_ptrI4DeclNS_14default_deleteIS2_EEEERNS_9allocatorIS5_EEE17__destruct_at_endB8ne180100EPS5_NS_17integral_constantIbLb0EEE, symObjAddr: 0x9D10, symBinAddr: 0x10000B350, symSize: 0x80 }
  - { offset: 0x1E99F, size: 0x8, addend: 0x0, symName: __ZNKSt3__114__split_bufferINS_10unique_ptrI4DeclNS_14default_deleteIS2_EEEERNS_9allocatorIS5_EEE9__end_capB8ne180100Ev, symObjAddr: 0x9D90, symBinAddr: 0x10000B3D0, symSize: 0x20 }
  - { offset: 0x1E9C5, size: 0x8, addend: 0x0, symName: __ZNKSt3__117__compressed_pairIPNS_10unique_ptrI4DeclNS_14default_deleteIS2_EEEERNS_9allocatorIS5_EEE5firstB8ne180100Ev, symObjAddr: 0x9DB0, symBinAddr: 0x10000B3F0, symSize: 0x20 }
  - { offset: 0x1E9EB, size: 0x8, addend: 0x0, symName: __ZNSt3__110unique_ptrI8FuncDeclNS_14default_deleteIS1_EEEC2B8ne180100ILb1EvEEPS1_, symObjAddr: 0x9DD0, symBinAddr: 0x10000B410, symSize: 0x40 }
  - { offset: 0x1EA2E, size: 0x8, addend: 0x0, symName: __ZNSt3__117__compressed_pairIP8FuncDeclNS_14default_deleteIS1_EEEC1B8ne180100IRS2_NS_16__value_init_tagEEEOT_OT0_, symObjAddr: 0x9E10, symBinAddr: 0x10000B450, symSize: 0x30 }
  - { offset: 0x1EA86, size: 0x8, addend: 0x0, symName: __ZNSt3__117__compressed_pairIP8FuncDeclNS_14default_deleteIS1_EEEC2B8ne180100IRS2_NS_16__value_init_tagEEEOT_OT0_, symObjAddr: 0x9E40, symBinAddr: 0x10000B480, symSize: 0x40 }
  - { offset: 0x1EADE, size: 0x8, addend: 0x0, symName: __ZNSt3__122__compressed_pair_elemIP8FuncDeclLi0ELb0EEC2B8ne180100IRS2_vEEOT_, symObjAddr: 0x9E80, symBinAddr: 0x10000B4C0, symSize: 0x20 }
  - { offset: 0x1EB20, size: 0x8, addend: 0x0, symName: __ZNSt3__122__compressed_pair_elemINS_14default_deleteI8FuncDeclEELi1ELb1EEC2B8ne180100ENS_16__value_init_tagE, symObjAddr: 0x9EA0, symBinAddr: 0x10000B4E0, symSize: 0x10 }
  - { offset: 0x1EB55, size: 0x8, addend: 0x0, symName: __ZNSt3__110unique_ptrI8FuncDeclNS_14default_deleteIS1_EEED2B8ne180100Ev, symObjAddr: 0x9EB0, symBinAddr: 0x10000B4F0, symSize: 0x20 }
  - { offset: 0x1EB7F, size: 0x8, addend: 0x0, symName: __ZNSt3__110unique_ptrI8FuncDeclNS_14default_deleteIS1_EEE5resetB8ne180100EPS1_, symObjAddr: 0x9ED0, symBinAddr: 0x10000B510, symSize: 0x70 }
  - { offset: 0x1EBC3, size: 0x8, addend: 0x0, symName: __ZNSt3__117__compressed_pairIP8FuncDeclNS_14default_deleteIS1_EEE5firstB8ne180100Ev, symObjAddr: 0x9F40, symBinAddr: 0x10000B580, symSize: 0x20 }
  - { offset: 0x1EBE9, size: 0x8, addend: 0x0, symName: __ZNSt3__117__compressed_pairIP8FuncDeclNS_14default_deleteIS1_EEE6secondB8ne180100Ev, symObjAddr: 0x9F60, symBinAddr: 0x10000B5A0, symSize: 0x20 }
  - { offset: 0x1EC0F, size: 0x8, addend: 0x0, symName: __ZNKSt3__114default_deleteI8FuncDeclEclB8ne180100EPS1_, symObjAddr: 0x9F80, symBinAddr: 0x10000B5C0, symSize: 0x40 }
  - { offset: 0x1EC43, size: 0x8, addend: 0x0, symName: __ZNSt3__122__compressed_pair_elemIP8FuncDeclLi0ELb0EE5__getB8ne180100Ev, symObjAddr: 0x9FC0, symBinAddr: 0x10000B600, symSize: 0x10 }
  - { offset: 0x1EC69, size: 0x8, addend: 0x0, symName: __ZNSt3__122__compressed_pair_elemINS_14default_deleteI8FuncDeclEELi1ELb1EE5__getB8ne180100Ev, symObjAddr: 0x9FD0, symBinAddr: 0x10000B610, symSize: 0x10 }
  - { offset: 0x1EC8F, size: 0x8, addend: 0x0, symName: __ZN8FuncDeclD1Ev, symObjAddr: 0x9FE0, symBinAddr: 0x10000B620, symSize: 0x20 }
  - { offset: 0x1ECBB, size: 0x8, addend: 0x0, symName: __ZN8FuncDeclD2Ev, symObjAddr: 0xA000, symBinAddr: 0x10000B640, symSize: 0x40 }
  - { offset: 0x1ECE7, size: 0x8, addend: 0x0, symName: __ZNSt3__16vectorINS_10unique_ptrI8FuncDeclNS_14default_deleteIS2_EEEENS_9allocatorIS5_EEE22__construct_one_at_endB8ne180100IJS5_EEEvDpOT_, symObjAddr: 0xA040, symBinAddr: 0x10000B680, symSize: 0x90 }
  - { offset: 0x1ED36, size: 0x8, addend: 0x0, symName: __ZNSt3__16vectorINS_10unique_ptrI8FuncDeclNS_14default_deleteIS2_EEEENS_9allocatorIS5_EEE21__push_back_slow_pathIS5_EEPS5_OT_, symObjAddr: 0xA0D0, symBinAddr: 0x10000B710, symSize: 0xE0 }
  - { offset: 0x1EDAD, size: 0x8, addend: 0x0, symName: __ZNSt3__16vectorINS_10unique_ptrI8FuncDeclNS_14default_deleteIS2_EEEENS_9allocatorIS5_EEE21_ConstructTransactionC1B8ne180100ERS8_m, symObjAddr: 0xA1B0, symBinAddr: 0x10000B7F0, symSize: 0x30 }
  - { offset: 0x1EDF5, size: 0x8, addend: 0x0, symName: __ZNSt3__116allocator_traitsINS_9allocatorINS_10unique_ptrI8FuncDeclNS_14default_deleteIS3_EEEEEEE9constructB8ne180100IS6_JS6_EvEEvRS7_PT_DpOT0_, symObjAddr: 0xA1E0, symBinAddr: 0x10000B820, symSize: 0x30 }
  - { offset: 0x1EE4C, size: 0x8, addend: 0x0, symName: __ZNSt3__16vectorINS_10unique_ptrI8FuncDeclNS_14default_deleteIS2_EEEENS_9allocatorIS5_EEE21_ConstructTransactionD1B8ne180100Ev, symObjAddr: 0xA210, symBinAddr: 0x10000B850, symSize: 0x20 }
  - { offset: 0x1EE76, size: 0x8, addend: 0x0, symName: __ZNSt3__16vectorINS_10unique_ptrI8FuncDeclNS_14default_deleteIS2_EEEENS_9allocatorIS5_EEE21_ConstructTransactionC2B8ne180100ERS8_m, symObjAddr: 0xA230, symBinAddr: 0x10000B870, symSize: 0x40 }
  - { offset: 0x1EEBE, size: 0x8, addend: 0x0, symName: __ZNSt3__19allocatorINS_10unique_ptrI8FuncDeclNS_14default_deleteIS2_EEEEE9constructB8ne180100IS5_JS5_EEEvPT_DpOT0_, symObjAddr: 0xA270, symBinAddr: 0x10000B8B0, symSize: 0x30 }
  - { offset: 0x1EF14, size: 0x8, addend: 0x0, symName: __ZNSt3__110unique_ptrI8FuncDeclNS_14default_deleteIS1_EEEC1B8ne180100EOS4_, symObjAddr: 0xA2A0, symBinAddr: 0x10000B8E0, symSize: 0x30 }
  - { offset: 0x1EF4C, size: 0x8, addend: 0x0, symName: __ZNSt3__110unique_ptrI8FuncDeclNS_14default_deleteIS1_EEEC2B8ne180100EOS4_, symObjAddr: 0xA2D0, symBinAddr: 0x10000B910, symSize: 0x60 }
  - { offset: 0x1EF84, size: 0x8, addend: 0x0, symName: __ZNSt3__110unique_ptrI8FuncDeclNS_14default_deleteIS1_EEE7releaseB8ne180100Ev, symObjAddr: 0xA330, symBinAddr: 0x10000B970, symSize: 0x40 }
  - { offset: 0x1EFB9, size: 0x8, addend: 0x0, symName: __ZNSt3__110unique_ptrI8FuncDeclNS_14default_deleteIS1_EEE11get_deleterB8ne180100Ev, symObjAddr: 0xA370, symBinAddr: 0x10000B9B0, symSize: 0x20 }
  - { offset: 0x1EFE9, size: 0x8, addend: 0x0, symName: __ZNSt3__117__compressed_pairIP8FuncDeclNS_14default_deleteIS1_EEEC1B8ne180100IS2_S4_EEOT_OT0_, symObjAddr: 0xA390, symBinAddr: 0x10000B9D0, symSize: 0x30 }
  - { offset: 0x1F041, size: 0x8, addend: 0x0, symName: __ZNSt3__117__compressed_pairIP8FuncDeclNS_14default_deleteIS1_EEEC2B8ne180100IS2_S4_EEOT_OT0_, symObjAddr: 0xA3C0, symBinAddr: 0x10000BA00, symSize: 0x40 }
  - { offset: 0x1F099, size: 0x8, addend: 0x0, symName: __ZNSt3__122__compressed_pair_elemIP8FuncDeclLi0ELb0EEC2B8ne180100IS2_vEEOT_, symObjAddr: 0xA400, symBinAddr: 0x10000BA40, symSize: 0x20 }
  - { offset: 0x1F0DB, size: 0x8, addend: 0x0, symName: __ZNSt3__122__compressed_pair_elemINS_14default_deleteI8FuncDeclEELi1ELb1EEC2B8ne180100IS3_vEEOT_, symObjAddr: 0xA420, symBinAddr: 0x10000BA60, symSize: 0x10 }
  - { offset: 0x1F11D, size: 0x8, addend: 0x0, symName: __ZNSt3__16vectorINS_10unique_ptrI8FuncDeclNS_14default_deleteIS2_EEEENS_9allocatorIS5_EEE21_ConstructTransactionD2B8ne180100Ev, symObjAddr: 0xA430, symBinAddr: 0x10000BA70, symSize: 0x20 }
  - { offset: 0x1F147, size: 0x8, addend: 0x0, symName: __ZNKSt3__16vectorINS_10unique_ptrI8FuncDeclNS_14default_deleteIS2_EEEENS_9allocatorIS5_EEE11__recommendB8ne180100Em, symObjAddr: 0xA450, symBinAddr: 0x10000BA90, symSize: 0x90 }
  - { offset: 0x1F19C, size: 0x8, addend: 0x0, symName: __ZNKSt3__16vectorINS_10unique_ptrI8FuncDeclNS_14default_deleteIS2_EEEENS_9allocatorIS5_EEE4sizeB8ne180100Ev, symObjAddr: 0xA4E0, symBinAddr: 0x10000BB20, symSize: 0x20 }
  - { offset: 0x1F1C2, size: 0x8, addend: 0x0, symName: __ZNSt3__114__split_bufferINS_10unique_ptrI8FuncDeclNS_14default_deleteIS2_EEEERNS_9allocatorIS5_EEEC1EmmS8_, symObjAddr: 0xA500, symBinAddr: 0x10000BB40, symSize: 0x40 }
  - { offset: 0x1F218, size: 0x8, addend: 0x0, symName: __ZNSt3__114__split_bufferINS_10unique_ptrI8FuncDeclNS_14default_deleteIS2_EEEERNS_9allocatorIS5_EEED1Ev, symObjAddr: 0xA660, symBinAddr: 0x10000BCA0, symSize: 0x20 }
  - { offset: 0x1F244, size: 0x8, addend: 0x0, symName: __ZNKSt3__16vectorINS_10unique_ptrI8FuncDeclNS_14default_deleteIS2_EEEENS_9allocatorIS5_EEE8max_sizeEv, symObjAddr: 0xA680, symBinAddr: 0x10000BCC0, symSize: 0x60 }
  - { offset: 0x1F26C, size: 0x8, addend: 0x0, symName: __ZNKSt3__16vectorINS_10unique_ptrI8FuncDeclNS_14default_deleteIS2_EEEENS_9allocatorIS5_EEE20__throw_length_errorB8ne180100Ev, symObjAddr: 0xA6E0, symBinAddr: 0x10000BD20, symSize: 0x20 }
  - { offset: 0x1F29C, size: 0x8, addend: 0x0, symName: __ZNSt3__116allocator_traitsINS_9allocatorINS_10unique_ptrI8FuncDeclNS_14default_deleteIS3_EEEEEEE8max_sizeB8ne180100IS7_vEEmRKS7_, symObjAddr: 0xA700, symBinAddr: 0x10000BD40, symSize: 0x20 }
  - { offset: 0x1F2CA, size: 0x8, addend: 0x0, symName: __ZNKSt3__16vectorINS_10unique_ptrI8FuncDeclNS_14default_deleteIS2_EEEENS_9allocatorIS5_EEE7__allocB8ne180100Ev, symObjAddr: 0xA720, symBinAddr: 0x10000BD60, symSize: 0x20 }
  - { offset: 0x1F2F0, size: 0x8, addend: 0x0, symName: __ZNKSt3__19allocatorINS_10unique_ptrI8FuncDeclNS_14default_deleteIS2_EEEEE8max_sizeB8ne180100Ev, symObjAddr: 0xA740, symBinAddr: 0x10000BD80, symSize: 0x20 }
  - { offset: 0x1F316, size: 0x8, addend: 0x0, symName: __ZNKSt3__117__compressed_pairIPNS_10unique_ptrI8FuncDeclNS_14default_deleteIS2_EEEENS_9allocatorIS5_EEE6secondB8ne180100Ev, symObjAddr: 0xA760, symBinAddr: 0x10000BDA0, symSize: 0x20 }
  - { offset: 0x1F33C, size: 0x8, addend: 0x0, symName: __ZNKSt3__122__compressed_pair_elemINS_9allocatorINS_10unique_ptrI8FuncDeclNS_14default_deleteIS3_EEEEEELi1ELb1EE5__getB8ne180100Ev, symObjAddr: 0xA780, symBinAddr: 0x10000BDC0, symSize: 0x10 }
  - { offset: 0x1F362, size: 0x8, addend: 0x0, symName: __ZNSt3__114__split_bufferINS_10unique_ptrI8FuncDeclNS_14default_deleteIS2_EEEERNS_9allocatorIS5_EEEC2EmmS8_, symObjAddr: 0xA790, symBinAddr: 0x10000BDD0, symSize: 0xD0 }
  - { offset: 0x1F3D6, size: 0x8, addend: 0x0, symName: __ZNSt3__117__compressed_pairIPNS_10unique_ptrI8FuncDeclNS_14default_deleteIS2_EEEERNS_9allocatorIS5_EEEC1B8ne180100IDnS9_EEOT_OT0_, symObjAddr: 0xA860, symBinAddr: 0x10000BEA0, symSize: 0x30 }
  - { offset: 0x1F42E, size: 0x8, addend: 0x0, symName: __ZNSt3__114__split_bufferINS_10unique_ptrI8FuncDeclNS_14default_deleteIS2_EEEERNS_9allocatorIS5_EEE7__allocB8ne180100Ev, symObjAddr: 0xA8D0, symBinAddr: 0x10000BF10, symSize: 0x20 }
  - { offset: 0x1F454, size: 0x8, addend: 0x0, symName: __ZNSt3__114__split_bufferINS_10unique_ptrI8FuncDeclNS_14default_deleteIS2_EEEERNS_9allocatorIS5_EEE9__end_capB8ne180100Ev, symObjAddr: 0xA8F0, symBinAddr: 0x10000BF30, symSize: 0x20 }
  - { offset: 0x1F47A, size: 0x8, addend: 0x0, symName: __ZNSt3__117__compressed_pairIPNS_10unique_ptrI8FuncDeclNS_14default_deleteIS2_EEEERNS_9allocatorIS5_EEEC2B8ne180100IDnS9_EEOT_OT0_, symObjAddr: 0xA910, symBinAddr: 0x10000BF50, symSize: 0x40 }
  - { offset: 0x1F4D2, size: 0x8, addend: 0x0, symName: __ZNSt3__122__compressed_pair_elemIRNS_9allocatorINS_10unique_ptrI8FuncDeclNS_14default_deleteIS3_EEEEEELi1ELb0EEC2B8ne180100IS8_vEEOT_, symObjAddr: 0xA950, symBinAddr: 0x10000BF90, symSize: 0x20 }
  - { offset: 0x1F514, size: 0x8, addend: 0x0, symName: __ZNSt3__19allocatorINS_10unique_ptrI8FuncDeclNS_14default_deleteIS2_EEEEE8allocateB8ne180100Em, symObjAddr: 0xA970, symBinAddr: 0x10000BFB0, symSize: 0x50 }
  - { offset: 0x1F548, size: 0x8, addend: 0x0, symName: __ZNSt3__117__compressed_pairIPNS_10unique_ptrI8FuncDeclNS_14default_deleteIS2_EEEERNS_9allocatorIS5_EEE6secondB8ne180100Ev, symObjAddr: 0xA9C0, symBinAddr: 0x10000C000, symSize: 0x20 }
  - { offset: 0x1F56E, size: 0x8, addend: 0x0, symName: __ZNSt3__122__compressed_pair_elemIRNS_9allocatorINS_10unique_ptrI8FuncDeclNS_14default_deleteIS3_EEEEEELi1ELb0EE5__getB8ne180100Ev, symObjAddr: 0xA9E0, symBinAddr: 0x10000C020, symSize: 0x20 }
  - { offset: 0x1F594, size: 0x8, addend: 0x0, symName: __ZNSt3__117__compressed_pairIPNS_10unique_ptrI8FuncDeclNS_14default_deleteIS2_EEEERNS_9allocatorIS5_EEE5firstB8ne180100Ev, symObjAddr: 0xAA00, symBinAddr: 0x10000C040, symSize: 0x20 }
  - { offset: 0x1F5BA, size: 0x8, addend: 0x0, symName: __ZNSt3__116reverse_iteratorIPNS_10unique_ptrI8FuncDeclNS_14default_deleteIS2_EEEEEC1B8ne180100ES6_, symObjAddr: 0xABA0, symBinAddr: 0x10000C1E0, symSize: 0x30 }
  - { offset: 0x1F5F2, size: 0x8, addend: 0x0, symName: __ZNKSt3__116reverse_iteratorIPNS_10unique_ptrI8FuncDeclNS_14default_deleteIS2_EEEEE4baseB8ne180100Ev, symObjAddr: 0xABD0, symBinAddr: 0x10000C210, symSize: 0x20 }
  - { offset: 0x1F618, size: 0x8, addend: 0x0, symName: __ZNKSt3__16vectorINS_10unique_ptrI8FuncDeclNS_14default_deleteIS2_EEEENS_9allocatorIS5_EEE14__annotate_newB8ne180100Em, symObjAddr: 0xAC30, symBinAddr: 0x10000C270, symSize: 0x10 }
  - { offset: 0x1F64D, size: 0x8, addend: 0x0, symName: __ZNSt3__129_AllocatorDestroyRangeReverseINS_9allocatorINS_10unique_ptrI8FuncDeclNS_14default_deleteIS3_EEEEEENS_16reverse_iteratorIPS6_EEEC1B8ne180100ERS7_RSA_SD_, symObjAddr: 0xACA0, symBinAddr: 0x10000C2E0, symSize: 0x40 }
  - { offset: 0x1F6A4, size: 0x8, addend: 0x0, symName: __ZNKSt3__116reverse_iteratorIPNS_10unique_ptrI8FuncDeclNS_14default_deleteIS2_EEEEEdeB8ne180100Ev, symObjAddr: 0xAD40, symBinAddr: 0x10000C380, symSize: 0x30 }
  - { offset: 0x1F6D8, size: 0x8, addend: 0x0, symName: __ZNSt3__116reverse_iteratorIPNS_10unique_ptrI8FuncDeclNS_14default_deleteIS2_EEEEEppB8ne180100Ev, symObjAddr: 0xAD70, symBinAddr: 0x10000C3B0, symSize: 0x20 }
  - { offset: 0x1F6FE, size: 0x8, addend: 0x0, symName: __ZNSt3__128__exception_guard_exceptionsINS_29_AllocatorDestroyRangeReverseINS_9allocatorINS_10unique_ptrI8FuncDeclNS_14default_deleteIS4_EEEEEENS_16reverse_iteratorIPS7_EEEEE10__completeB8ne180100Ev, symObjAddr: 0xAD90, symBinAddr: 0x10000C3D0, symSize: 0x20 }
  - { offset: 0x1F724, size: 0x8, addend: 0x0, symName: __ZNSt3__128__exception_guard_exceptionsINS_29_AllocatorDestroyRangeReverseINS_9allocatorINS_10unique_ptrI8FuncDeclNS_14default_deleteIS4_EEEEEENS_16reverse_iteratorIPS7_EEEEED1B8ne180100Ev, symObjAddr: 0xADB0, symBinAddr: 0x10000C3F0, symSize: 0x20 }
  - { offset: 0x1F74E, size: 0x8, addend: 0x0, symName: __ZNSt3__128__exception_guard_exceptionsINS_29_AllocatorDestroyRangeReverseINS_9allocatorINS_10unique_ptrI8FuncDeclNS_14default_deleteIS4_EEEEEENS_16reverse_iteratorIPS7_EEEEEC1B8ne180100ESC_, symObjAddr: 0xADD0, symBinAddr: 0x10000C410, symSize: 0x40 }
  - { offset: 0x1F786, size: 0x8, addend: 0x0, symName: __ZNSt3__128__exception_guard_exceptionsINS_29_AllocatorDestroyRangeReverseINS_9allocatorINS_10unique_ptrI8FuncDeclNS_14default_deleteIS4_EEEEEENS_16reverse_iteratorIPS7_EEEEEC2B8ne180100ESC_, symObjAddr: 0xAE10, symBinAddr: 0x10000C450, symSize: 0x30 }
  - { offset: 0x1F7BE, size: 0x8, addend: 0x0, symName: __ZNSt3__129_AllocatorDestroyRangeReverseINS_9allocatorINS_10unique_ptrI8FuncDeclNS_14default_deleteIS3_EEEEEENS_16reverse_iteratorIPS6_EEEC2B8ne180100ERS7_RSA_SD_, symObjAddr: 0xAE40, symBinAddr: 0x10000C480, symSize: 0x40 }
  - { offset: 0x1F81A, size: 0x8, addend: 0x0, symName: __ZNSt3__119__to_address_helperINS_16reverse_iteratorIPNS_10unique_ptrI8FuncDeclNS_14default_deleteIS3_EEEEEEvE6__callB8ne180100ERKS8_, symObjAddr: 0xAE80, symBinAddr: 0x10000C4C0, symSize: 0x40 }
  - { offset: 0x1F83D, size: 0x8, addend: 0x0, symName: __ZNKSt3__116reverse_iteratorIPNS_10unique_ptrI8FuncDeclNS_14default_deleteIS2_EEEEEptB8ne180100Ev, symObjAddr: 0xAEC0, symBinAddr: 0x10000C500, symSize: 0x20 }
  - { offset: 0x1F863, size: 0x8, addend: 0x0, symName: __ZNSt3__128__exception_guard_exceptionsINS_29_AllocatorDestroyRangeReverseINS_9allocatorINS_10unique_ptrI8FuncDeclNS_14default_deleteIS4_EEEEEENS_16reverse_iteratorIPS7_EEEEED2B8ne180100Ev, symObjAddr: 0xAEE0, symBinAddr: 0x10000C520, symSize: 0x40 }
  - { offset: 0x1F88D, size: 0x8, addend: 0x0, symName: __ZNKSt3__129_AllocatorDestroyRangeReverseINS_9allocatorINS_10unique_ptrI8FuncDeclNS_14default_deleteIS3_EEEEEENS_16reverse_iteratorIPS6_EEEclB8ne180100Ev, symObjAddr: 0xAF20, symBinAddr: 0x10000C560, symSize: 0xF0 }
  - { offset: 0x1F8B4, size: 0x8, addend: 0x0, symName: __ZNSt3__116reverse_iteratorINS0_IPNS_10unique_ptrI8FuncDeclNS_14default_deleteIS2_EEEEEEEC1B8ne180100ES7_, symObjAddr: 0xB080, symBinAddr: 0x10000C6C0, symSize: 0x30 }
  - { offset: 0x1F8EC, size: 0x8, addend: 0x0, symName: __ZNSt3__116reverse_iteratorINS0_IPNS_10unique_ptrI8FuncDeclNS_14default_deleteIS2_EEEEEEEppB8ne180100Ev, symObjAddr: 0xB120, symBinAddr: 0x10000C760, symSize: 0x30 }
  - { offset: 0x1F912, size: 0x8, addend: 0x0, symName: __ZNKSt3__116reverse_iteratorINS0_IPNS_10unique_ptrI8FuncDeclNS_14default_deleteIS2_EEEEEEE4baseB8ne180100Ev, symObjAddr: 0xB150, symBinAddr: 0x10000C790, symSize: 0x20 }
  - { offset: 0x1F93D, size: 0x8, addend: 0x0, symName: __ZNSt3__119__to_address_helperINS_16reverse_iteratorINS1_IPNS_10unique_ptrI8FuncDeclNS_14default_deleteIS3_EEEEEEEEvE6__callB8ne180100ERKS9_, symObjAddr: 0xB170, symBinAddr: 0x10000C7B0, symSize: 0x40 }
  - { offset: 0x1F960, size: 0x8, addend: 0x0, symName: __ZNKSt3__116reverse_iteratorINS0_IPNS_10unique_ptrI8FuncDeclNS_14default_deleteIS2_EEEEEEEptB8ne180100Ev, symObjAddr: 0xB1B0, symBinAddr: 0x10000C7F0, symSize: 0x20 }
  - { offset: 0x1F986, size: 0x8, addend: 0x0, symName: __ZNKSt3__116reverse_iteratorINS0_IPNS_10unique_ptrI8FuncDeclNS_14default_deleteIS2_EEEEEEEdeB8ne180100Ev, symObjAddr: 0xB1D0, symBinAddr: 0x10000C810, symSize: 0x40 }
  - { offset: 0x1F9BA, size: 0x8, addend: 0x0, symName: __ZNSt3__116reverse_iteratorIPNS_10unique_ptrI8FuncDeclNS_14default_deleteIS2_EEEEEmmB8ne180100Ev, symObjAddr: 0xB210, symBinAddr: 0x10000C850, symSize: 0x20 }
  - { offset: 0x1F9E0, size: 0x8, addend: 0x0, symName: __ZNSt3__116reverse_iteratorINS0_IPNS_10unique_ptrI8FuncDeclNS_14default_deleteIS2_EEEEEEEC2B8ne180100ES7_, symObjAddr: 0xB230, symBinAddr: 0x10000C870, symSize: 0x40 }
  - { offset: 0x1FA18, size: 0x8, addend: 0x0, symName: __ZNSt3__116reverse_iteratorIPNS_10unique_ptrI8FuncDeclNS_14default_deleteIS2_EEEEEC2B8ne180100ES6_, symObjAddr: 0xB270, symBinAddr: 0x10000C8B0, symSize: 0x30 }
  - { offset: 0x1FA50, size: 0x8, addend: 0x0, symName: __ZNSt3__114__split_bufferINS_10unique_ptrI8FuncDeclNS_14default_deleteIS2_EEEERNS_9allocatorIS5_EEED2Ev, symObjAddr: 0xB2A0, symBinAddr: 0x10000C8E0, symSize: 0x70 }
  - { offset: 0x1FA7C, size: 0x8, addend: 0x0, symName: __ZNSt3__114__split_bufferINS_10unique_ptrI8FuncDeclNS_14default_deleteIS2_EEEERNS_9allocatorIS5_EEE5clearB8ne180100Ev, symObjAddr: 0xB310, symBinAddr: 0x10000C950, symSize: 0x20 }
  - { offset: 0x1FAA2, size: 0x8, addend: 0x0, symName: __ZNKSt3__114__split_bufferINS_10unique_ptrI8FuncDeclNS_14default_deleteIS2_EEEERNS_9allocatorIS5_EEE8capacityB8ne180100Ev, symObjAddr: 0xB330, symBinAddr: 0x10000C970, symSize: 0x30 }
  - { offset: 0x1FAC8, size: 0x8, addend: 0x0, symName: __ZNSt3__114__split_bufferINS_10unique_ptrI8FuncDeclNS_14default_deleteIS2_EEEERNS_9allocatorIS5_EEE17__destruct_at_endB8ne180100EPS5_, symObjAddr: 0xB360, symBinAddr: 0x10000C9A0, symSize: 0x30 }
  - { offset: 0x1FAFC, size: 0x8, addend: 0x0, symName: __ZNSt3__114__split_bufferINS_10unique_ptrI8FuncDeclNS_14default_deleteIS2_EEEERNS_9allocatorIS5_EEE17__destruct_at_endB8ne180100EPS5_NS_17integral_constantIbLb0EEE, symObjAddr: 0xB390, symBinAddr: 0x10000C9D0, symSize: 0x80 }
  - { offset: 0x1FB3D, size: 0x8, addend: 0x0, symName: __ZNKSt3__114__split_bufferINS_10unique_ptrI8FuncDeclNS_14default_deleteIS2_EEEERNS_9allocatorIS5_EEE9__end_capB8ne180100Ev, symObjAddr: 0xB410, symBinAddr: 0x10000CA50, symSize: 0x20 }
  - { offset: 0x1FB63, size: 0x8, addend: 0x0, symName: __ZNKSt3__117__compressed_pairIPNS_10unique_ptrI8FuncDeclNS_14default_deleteIS2_EEEERNS_9allocatorIS5_EEE5firstB8ne180100Ev, symObjAddr: 0xB430, symBinAddr: 0x10000CA70, symSize: 0x20 }
  - { offset: 0x1FB89, size: 0x8, addend: 0x0, symName: __ZNSt3__110unique_ptrI3APINS_14default_deleteIS1_EEEC2B8ne180100ILb1EvEEPS1_, symObjAddr: 0xB450, symBinAddr: 0x10000CA90, symSize: 0x40 }
  - { offset: 0x1FBCC, size: 0x8, addend: 0x0, symName: __ZNSt3__117__compressed_pairIP3APINS_14default_deleteIS1_EEEC1B8ne180100IRS2_NS_16__value_init_tagEEEOT_OT0_, symObjAddr: 0xB490, symBinAddr: 0x10000CAD0, symSize: 0x30 }
  - { offset: 0x1FC24, size: 0x8, addend: 0x0, symName: __ZNSt3__117__compressed_pairIP3APINS_14default_deleteIS1_EEEC2B8ne180100IRS2_NS_16__value_init_tagEEEOT_OT0_, symObjAddr: 0xB4C0, symBinAddr: 0x10000CB00, symSize: 0x40 }
  - { offset: 0x1FC7C, size: 0x8, addend: 0x0, symName: __ZNSt3__122__compressed_pair_elemIP3APILi0ELb0EEC2B8ne180100IRS2_vEEOT_, symObjAddr: 0xB500, symBinAddr: 0x10000CB40, symSize: 0x20 }
  - { offset: 0x1FCBE, size: 0x8, addend: 0x0, symName: __ZNSt3__122__compressed_pair_elemINS_14default_deleteI3APIEELi1ELb1EEC2B8ne180100ENS_16__value_init_tagE, symObjAddr: 0xB520, symBinAddr: 0x10000CB60, symSize: 0x10 }
  - { offset: 0x1FCF3, size: 0x8, addend: 0x0, symName: __ZNSt3__110unique_ptrI3APINS_14default_deleteIS1_EEED2B8ne180100Ev, symObjAddr: 0xB530, symBinAddr: 0x10000CB70, symSize: 0x20 }
  - { offset: 0x1FD1D, size: 0x8, addend: 0x0, symName: __ZNSt3__110unique_ptrI3APINS_14default_deleteIS1_EEE5resetB8ne180100EPS1_, symObjAddr: 0xB550, symBinAddr: 0x10000CB90, symSize: 0x70 }
  - { offset: 0x1FD61, size: 0x8, addend: 0x0, symName: __ZNSt3__117__compressed_pairIP3APINS_14default_deleteIS1_EEE5firstB8ne180100Ev, symObjAddr: 0xB5C0, symBinAddr: 0x10000CC00, symSize: 0x20 }
  - { offset: 0x1FD87, size: 0x8, addend: 0x0, symName: __ZNSt3__117__compressed_pairIP3APINS_14default_deleteIS1_EEE6secondB8ne180100Ev, symObjAddr: 0xB5E0, symBinAddr: 0x10000CC20, symSize: 0x20 }
  - { offset: 0x1FDAD, size: 0x8, addend: 0x0, symName: __ZNKSt3__114default_deleteI3APIEclB8ne180100EPS1_, symObjAddr: 0xB600, symBinAddr: 0x10000CC40, symSize: 0x40 }
  - { offset: 0x1FDE1, size: 0x8, addend: 0x0, symName: __ZNSt3__122__compressed_pair_elemIP3APILi0ELb0EE5__getB8ne180100Ev, symObjAddr: 0xB640, symBinAddr: 0x10000CC80, symSize: 0x10 }
  - { offset: 0x1FE07, size: 0x8, addend: 0x0, symName: __ZNSt3__122__compressed_pair_elemINS_14default_deleteI3APIEELi1ELb1EE5__getB8ne180100Ev, symObjAddr: 0xB650, symBinAddr: 0x10000CC90, symSize: 0x10 }
  - { offset: 0x1FE2D, size: 0x8, addend: 0x0, symName: __ZN3APID1Ev, symObjAddr: 0xB660, symBinAddr: 0x10000CCA0, symSize: 0x20 }
  - { offset: 0x1FE5A, size: 0x8, addend: 0x0, symName: __ZN3APID2Ev, symObjAddr: 0xB680, symBinAddr: 0x10000CCC0, symSize: 0x40 }
  - { offset: 0x1FE87, size: 0x8, addend: 0x0, symName: __ZNSt3__16vectorINS_10unique_ptrI3APINS_14default_deleteIS2_EEEENS_9allocatorIS5_EEE22__construct_one_at_endB8ne180100IJS5_EEEvDpOT_, symObjAddr: 0xB6C0, symBinAddr: 0x10000CD00, symSize: 0x90 }
  - { offset: 0x1FED6, size: 0x8, addend: 0x0, symName: __ZNSt3__16vectorINS_10unique_ptrI3APINS_14default_deleteIS2_EEEENS_9allocatorIS5_EEE21__push_back_slow_pathIS5_EEPS5_OT_, symObjAddr: 0xB750, symBinAddr: 0x10000CD90, symSize: 0xE0 }
  - { offset: 0x1FF4D, size: 0x8, addend: 0x0, symName: __ZNSt3__16vectorINS_10unique_ptrI3APINS_14default_deleteIS2_EEEENS_9allocatorIS5_EEE21_ConstructTransactionC1B8ne180100ERS8_m, symObjAddr: 0xB830, symBinAddr: 0x10000CE70, symSize: 0x30 }
  - { offset: 0x1FF95, size: 0x8, addend: 0x0, symName: __ZNSt3__116allocator_traitsINS_9allocatorINS_10unique_ptrI3APINS_14default_deleteIS3_EEEEEEE9constructB8ne180100IS6_JS6_EvEEvRS7_PT_DpOT0_, symObjAddr: 0xB860, symBinAddr: 0x10000CEA0, symSize: 0x30 }
  - { offset: 0x1FFEC, size: 0x8, addend: 0x0, symName: __ZNSt3__16vectorINS_10unique_ptrI3APINS_14default_deleteIS2_EEEENS_9allocatorIS5_EEE21_ConstructTransactionD1B8ne180100Ev, symObjAddr: 0xB890, symBinAddr: 0x10000CED0, symSize: 0x20 }
  - { offset: 0x20016, size: 0x8, addend: 0x0, symName: __ZNSt3__16vectorINS_10unique_ptrI3APINS_14default_deleteIS2_EEEENS_9allocatorIS5_EEE21_ConstructTransactionC2B8ne180100ERS8_m, symObjAddr: 0xB8B0, symBinAddr: 0x10000CEF0, symSize: 0x40 }
  - { offset: 0x2005E, size: 0x8, addend: 0x0, symName: __ZNSt3__19allocatorINS_10unique_ptrI3APINS_14default_deleteIS2_EEEEE9constructB8ne180100IS5_JS5_EEEvPT_DpOT0_, symObjAddr: 0xB8F0, symBinAddr: 0x10000CF30, symSize: 0x30 }
  - { offset: 0x200B4, size: 0x8, addend: 0x0, symName: __ZNSt3__110unique_ptrI3APINS_14default_deleteIS1_EEEC1B8ne180100EOS4_, symObjAddr: 0xB920, symBinAddr: 0x10000CF60, symSize: 0x30 }
  - { offset: 0x200EC, size: 0x8, addend: 0x0, symName: __ZNSt3__110unique_ptrI3APINS_14default_deleteIS1_EEEC2B8ne180100EOS4_, symObjAddr: 0xB950, symBinAddr: 0x10000CF90, symSize: 0x60 }
  - { offset: 0x20124, size: 0x8, addend: 0x0, symName: __ZNSt3__110unique_ptrI3APINS_14default_deleteIS1_EEE7releaseB8ne180100Ev, symObjAddr: 0xB9B0, symBinAddr: 0x10000CFF0, symSize: 0x40 }
  - { offset: 0x20159, size: 0x8, addend: 0x0, symName: __ZNSt3__110unique_ptrI3APINS_14default_deleteIS1_EEE11get_deleterB8ne180100Ev, symObjAddr: 0xB9F0, symBinAddr: 0x10000D030, symSize: 0x20 }
  - { offset: 0x20189, size: 0x8, addend: 0x0, symName: __ZNSt3__117__compressed_pairIP3APINS_14default_deleteIS1_EEEC1B8ne180100IS2_S4_EEOT_OT0_, symObjAddr: 0xBA10, symBinAddr: 0x10000D050, symSize: 0x30 }
  - { offset: 0x201E1, size: 0x8, addend: 0x0, symName: __ZNSt3__117__compressed_pairIP3APINS_14default_deleteIS1_EEEC2B8ne180100IS2_S4_EEOT_OT0_, symObjAddr: 0xBA40, symBinAddr: 0x10000D080, symSize: 0x40 }
  - { offset: 0x20239, size: 0x8, addend: 0x0, symName: __ZNSt3__122__compressed_pair_elemIP3APILi0ELb0EEC2B8ne180100IS2_vEEOT_, symObjAddr: 0xBA80, symBinAddr: 0x10000D0C0, symSize: 0x20 }
  - { offset: 0x2027B, size: 0x8, addend: 0x0, symName: __ZNSt3__122__compressed_pair_elemINS_14default_deleteI3APIEELi1ELb1EEC2B8ne180100IS3_vEEOT_, symObjAddr: 0xBAA0, symBinAddr: 0x10000D0E0, symSize: 0x10 }
  - { offset: 0x202BD, size: 0x8, addend: 0x0, symName: __ZNSt3__16vectorINS_10unique_ptrI3APINS_14default_deleteIS2_EEEENS_9allocatorIS5_EEE21_ConstructTransactionD2B8ne180100Ev, symObjAddr: 0xBAB0, symBinAddr: 0x10000D0F0, symSize: 0x20 }
  - { offset: 0x202E7, size: 0x8, addend: 0x0, symName: __ZNKSt3__16vectorINS_10unique_ptrI3APINS_14default_deleteIS2_EEEENS_9allocatorIS5_EEE11__recommendB8ne180100Em, symObjAddr: 0xBAD0, symBinAddr: 0x10000D110, symSize: 0x90 }
  - { offset: 0x2033C, size: 0x8, addend: 0x0, symName: __ZNKSt3__16vectorINS_10unique_ptrI3APINS_14default_deleteIS2_EEEENS_9allocatorIS5_EEE4sizeB8ne180100Ev, symObjAddr: 0xBB60, symBinAddr: 0x10000D1A0, symSize: 0x20 }
  - { offset: 0x20362, size: 0x8, addend: 0x0, symName: __ZNSt3__114__split_bufferINS_10unique_ptrI3APINS_14default_deleteIS2_EEEERNS_9allocatorIS5_EEEC1EmmS8_, symObjAddr: 0xBB80, symBinAddr: 0x10000D1C0, symSize: 0x40 }
  - { offset: 0x203B8, size: 0x8, addend: 0x0, symName: __ZNSt3__114__split_bufferINS_10unique_ptrI3APINS_14default_deleteIS2_EEEERNS_9allocatorIS5_EEED1Ev, symObjAddr: 0xBCE0, symBinAddr: 0x10000D320, symSize: 0x20 }
  - { offset: 0x203E4, size: 0x8, addend: 0x0, symName: __ZNKSt3__16vectorINS_10unique_ptrI3APINS_14default_deleteIS2_EEEENS_9allocatorIS5_EEE8max_sizeEv, symObjAddr: 0xBD00, symBinAddr: 0x10000D340, symSize: 0x60 }
  - { offset: 0x2040C, size: 0x8, addend: 0x0, symName: __ZNKSt3__16vectorINS_10unique_ptrI3APINS_14default_deleteIS2_EEEENS_9allocatorIS5_EEE20__throw_length_errorB8ne180100Ev, symObjAddr: 0xBD60, symBinAddr: 0x10000D3A0, symSize: 0x20 }
  - { offset: 0x2043C, size: 0x8, addend: 0x0, symName: __ZNSt3__116allocator_traitsINS_9allocatorINS_10unique_ptrI3APINS_14default_deleteIS3_EEEEEEE8max_sizeB8ne180100IS7_vEEmRKS7_, symObjAddr: 0xBD80, symBinAddr: 0x10000D3C0, symSize: 0x20 }
  - { offset: 0x2046A, size: 0x8, addend: 0x0, symName: __ZNKSt3__16vectorINS_10unique_ptrI3APINS_14default_deleteIS2_EEEENS_9allocatorIS5_EEE7__allocB8ne180100Ev, symObjAddr: 0xBDA0, symBinAddr: 0x10000D3E0, symSize: 0x20 }
  - { offset: 0x20490, size: 0x8, addend: 0x0, symName: __ZNKSt3__19allocatorINS_10unique_ptrI3APINS_14default_deleteIS2_EEEEE8max_sizeB8ne180100Ev, symObjAddr: 0xBDC0, symBinAddr: 0x10000D400, symSize: 0x20 }
  - { offset: 0x204B6, size: 0x8, addend: 0x0, symName: __ZNKSt3__117__compressed_pairIPNS_10unique_ptrI3APINS_14default_deleteIS2_EEEENS_9allocatorIS5_EEE6secondB8ne180100Ev, symObjAddr: 0xBDE0, symBinAddr: 0x10000D420, symSize: 0x20 }
  - { offset: 0x204DC, size: 0x8, addend: 0x0, symName: __ZNKSt3__122__compressed_pair_elemINS_9allocatorINS_10unique_ptrI3APINS_14default_deleteIS3_EEEEEELi1ELb1EE5__getB8ne180100Ev, symObjAddr: 0xBE00, symBinAddr: 0x10000D440, symSize: 0x10 }
  - { offset: 0x20502, size: 0x8, addend: 0x0, symName: __ZNSt3__114__split_bufferINS_10unique_ptrI3APINS_14default_deleteIS2_EEEERNS_9allocatorIS5_EEEC2EmmS8_, symObjAddr: 0xBE10, symBinAddr: 0x10000D450, symSize: 0xD0 }
  - { offset: 0x20576, size: 0x8, addend: 0x0, symName: __ZNSt3__117__compressed_pairIPNS_10unique_ptrI3APINS_14default_deleteIS2_EEEERNS_9allocatorIS5_EEEC1B8ne180100IDnS9_EEOT_OT0_, symObjAddr: 0xBEE0, symBinAddr: 0x10000D520, symSize: 0x30 }
  - { offset: 0x205CE, size: 0x8, addend: 0x0, symName: __ZNSt3__114__split_bufferINS_10unique_ptrI3APINS_14default_deleteIS2_EEEERNS_9allocatorIS5_EEE7__allocB8ne180100Ev, symObjAddr: 0xBF50, symBinAddr: 0x10000D590, symSize: 0x20 }
  - { offset: 0x205F4, size: 0x8, addend: 0x0, symName: __ZNSt3__114__split_bufferINS_10unique_ptrI3APINS_14default_deleteIS2_EEEERNS_9allocatorIS5_EEE9__end_capB8ne180100Ev, symObjAddr: 0xBF70, symBinAddr: 0x10000D5B0, symSize: 0x20 }
  - { offset: 0x2061A, size: 0x8, addend: 0x0, symName: __ZNSt3__117__compressed_pairIPNS_10unique_ptrI3APINS_14default_deleteIS2_EEEERNS_9allocatorIS5_EEEC2B8ne180100IDnS9_EEOT_OT0_, symObjAddr: 0xBF90, symBinAddr: 0x10000D5D0, symSize: 0x40 }
  - { offset: 0x20672, size: 0x8, addend: 0x0, symName: __ZNSt3__122__compressed_pair_elemIRNS_9allocatorINS_10unique_ptrI3APINS_14default_deleteIS3_EEEEEELi1ELb0EEC2B8ne180100IS8_vEEOT_, symObjAddr: 0xBFD0, symBinAddr: 0x10000D610, symSize: 0x20 }
  - { offset: 0x206B4, size: 0x8, addend: 0x0, symName: __ZNSt3__19allocatorINS_10unique_ptrI3APINS_14default_deleteIS2_EEEEE8allocateB8ne180100Em, symObjAddr: 0xBFF0, symBinAddr: 0x10000D630, symSize: 0x50 }
  - { offset: 0x206E8, size: 0x8, addend: 0x0, symName: __ZNSt3__117__compressed_pairIPNS_10unique_ptrI3APINS_14default_deleteIS2_EEEERNS_9allocatorIS5_EEE6secondB8ne180100Ev, symObjAddr: 0xC040, symBinAddr: 0x10000D680, symSize: 0x20 }
  - { offset: 0x2070E, size: 0x8, addend: 0x0, symName: __ZNSt3__122__compressed_pair_elemIRNS_9allocatorINS_10unique_ptrI3APINS_14default_deleteIS3_EEEEEELi1ELb0EE5__getB8ne180100Ev, symObjAddr: 0xC060, symBinAddr: 0x10000D6A0, symSize: 0x20 }
  - { offset: 0x20734, size: 0x8, addend: 0x0, symName: __ZNSt3__117__compressed_pairIPNS_10unique_ptrI3APINS_14default_deleteIS2_EEEERNS_9allocatorIS5_EEE5firstB8ne180100Ev, symObjAddr: 0xC080, symBinAddr: 0x10000D6C0, symSize: 0x20 }
  - { offset: 0x2075A, size: 0x8, addend: 0x0, symName: __ZNSt3__116reverse_iteratorIPNS_10unique_ptrI3APINS_14default_deleteIS2_EEEEEC1B8ne180100ES6_, symObjAddr: 0xC220, symBinAddr: 0x10000D860, symSize: 0x30 }
  - { offset: 0x20792, size: 0x8, addend: 0x0, symName: __ZNKSt3__116reverse_iteratorIPNS_10unique_ptrI3APINS_14default_deleteIS2_EEEEE4baseB8ne180100Ev, symObjAddr: 0xC250, symBinAddr: 0x10000D890, symSize: 0x20 }
  - { offset: 0x207B8, size: 0x8, addend: 0x0, symName: __ZNKSt3__16vectorINS_10unique_ptrI3APINS_14default_deleteIS2_EEEENS_9allocatorIS5_EEE14__annotate_newB8ne180100Em, symObjAddr: 0xC2B0, symBinAddr: 0x10000D8F0, symSize: 0x10 }
  - { offset: 0x207ED, size: 0x8, addend: 0x0, symName: __ZNSt3__129_AllocatorDestroyRangeReverseINS_9allocatorINS_10unique_ptrI3APINS_14default_deleteIS3_EEEEEENS_16reverse_iteratorIPS6_EEEC1B8ne180100ERS7_RSA_SD_, symObjAddr: 0xC320, symBinAddr: 0x10000D960, symSize: 0x40 }
  - { offset: 0x20844, size: 0x8, addend: 0x0, symName: __ZNKSt3__116reverse_iteratorIPNS_10unique_ptrI3APINS_14default_deleteIS2_EEEEEdeB8ne180100Ev, symObjAddr: 0xC3C0, symBinAddr: 0x10000DA00, symSize: 0x30 }
  - { offset: 0x20878, size: 0x8, addend: 0x0, symName: __ZNSt3__116reverse_iteratorIPNS_10unique_ptrI3APINS_14default_deleteIS2_EEEEEppB8ne180100Ev, symObjAddr: 0xC3F0, symBinAddr: 0x10000DA30, symSize: 0x20 }
  - { offset: 0x2089E, size: 0x8, addend: 0x0, symName: __ZNSt3__128__exception_guard_exceptionsINS_29_AllocatorDestroyRangeReverseINS_9allocatorINS_10unique_ptrI3APINS_14default_deleteIS4_EEEEEENS_16reverse_iteratorIPS7_EEEEE10__completeB8ne180100Ev, symObjAddr: 0xC410, symBinAddr: 0x10000DA50, symSize: 0x20 }
  - { offset: 0x208C4, size: 0x8, addend: 0x0, symName: __ZNSt3__128__exception_guard_exceptionsINS_29_AllocatorDestroyRangeReverseINS_9allocatorINS_10unique_ptrI3APINS_14default_deleteIS4_EEEEEENS_16reverse_iteratorIPS7_EEEEED1B8ne180100Ev, symObjAddr: 0xC430, symBinAddr: 0x10000DA70, symSize: 0x20 }
  - { offset: 0x208EE, size: 0x8, addend: 0x0, symName: __ZNSt3__128__exception_guard_exceptionsINS_29_AllocatorDestroyRangeReverseINS_9allocatorINS_10unique_ptrI3APINS_14default_deleteIS4_EEEEEENS_16reverse_iteratorIPS7_EEEEEC1B8ne180100ESC_, symObjAddr: 0xC450, symBinAddr: 0x10000DA90, symSize: 0x40 }
  - { offset: 0x20926, size: 0x8, addend: 0x0, symName: __ZNSt3__128__exception_guard_exceptionsINS_29_AllocatorDestroyRangeReverseINS_9allocatorINS_10unique_ptrI3APINS_14default_deleteIS4_EEEEEENS_16reverse_iteratorIPS7_EEEEEC2B8ne180100ESC_, symObjAddr: 0xC490, symBinAddr: 0x10000DAD0, symSize: 0x30 }
  - { offset: 0x2095E, size: 0x8, addend: 0x0, symName: __ZNSt3__129_AllocatorDestroyRangeReverseINS_9allocatorINS_10unique_ptrI3APINS_14default_deleteIS3_EEEEEENS_16reverse_iteratorIPS6_EEEC2B8ne180100ERS7_RSA_SD_, symObjAddr: 0xC4C0, symBinAddr: 0x10000DB00, symSize: 0x40 }
  - { offset: 0x209BA, size: 0x8, addend: 0x0, symName: __ZNSt3__119__to_address_helperINS_16reverse_iteratorIPNS_10unique_ptrI3APINS_14default_deleteIS3_EEEEEEvE6__callB8ne180100ERKS8_, symObjAddr: 0xC500, symBinAddr: 0x10000DB40, symSize: 0x40 }
  - { offset: 0x209DD, size: 0x8, addend: 0x0, symName: __ZNKSt3__116reverse_iteratorIPNS_10unique_ptrI3APINS_14default_deleteIS2_EEEEEptB8ne180100Ev, symObjAddr: 0xC540, symBinAddr: 0x10000DB80, symSize: 0x20 }
  - { offset: 0x20A03, size: 0x8, addend: 0x0, symName: __ZNSt3__128__exception_guard_exceptionsINS_29_AllocatorDestroyRangeReverseINS_9allocatorINS_10unique_ptrI3APINS_14default_deleteIS4_EEEEEENS_16reverse_iteratorIPS7_EEEEED2B8ne180100Ev, symObjAddr: 0xC560, symBinAddr: 0x10000DBA0, symSize: 0x40 }
  - { offset: 0x20A2D, size: 0x8, addend: 0x0, symName: __ZNKSt3__129_AllocatorDestroyRangeReverseINS_9allocatorINS_10unique_ptrI3APINS_14default_deleteIS3_EEEEEENS_16reverse_iteratorIPS6_EEEclB8ne180100Ev, symObjAddr: 0xC5A0, symBinAddr: 0x10000DBE0, symSize: 0xF0 }
  - { offset: 0x20A54, size: 0x8, addend: 0x0, symName: __ZNSt3__116reverse_iteratorINS0_IPNS_10unique_ptrI3APINS_14default_deleteIS2_EEEEEEEC1B8ne180100ES7_, symObjAddr: 0xC700, symBinAddr: 0x10000DD40, symSize: 0x30 }
  - { offset: 0x20A8C, size: 0x8, addend: 0x0, symName: __ZNSt3__116reverse_iteratorINS0_IPNS_10unique_ptrI3APINS_14default_deleteIS2_EEEEEEEppB8ne180100Ev, symObjAddr: 0xC7A0, symBinAddr: 0x10000DDE0, symSize: 0x30 }
  - { offset: 0x20AB2, size: 0x8, addend: 0x0, symName: __ZNKSt3__116reverse_iteratorINS0_IPNS_10unique_ptrI3APINS_14default_deleteIS2_EEEEEEE4baseB8ne180100Ev, symObjAddr: 0xC7D0, symBinAddr: 0x10000DE10, symSize: 0x20 }
  - { offset: 0x20ADD, size: 0x8, addend: 0x0, symName: __ZNSt3__119__to_address_helperINS_16reverse_iteratorINS1_IPNS_10unique_ptrI3APINS_14default_deleteIS3_EEEEEEEEvE6__callB8ne180100ERKS9_, symObjAddr: 0xC7F0, symBinAddr: 0x10000DE30, symSize: 0x40 }
  - { offset: 0x20B00, size: 0x8, addend: 0x0, symName: __ZNKSt3__116reverse_iteratorINS0_IPNS_10unique_ptrI3APINS_14default_deleteIS2_EEEEEEEptB8ne180100Ev, symObjAddr: 0xC830, symBinAddr: 0x10000DE70, symSize: 0x20 }
  - { offset: 0x20B26, size: 0x8, addend: 0x0, symName: __ZNKSt3__116reverse_iteratorINS0_IPNS_10unique_ptrI3APINS_14default_deleteIS2_EEEEEEEdeB8ne180100Ev, symObjAddr: 0xC850, symBinAddr: 0x10000DE90, symSize: 0x40 }
  - { offset: 0x20B5A, size: 0x8, addend: 0x0, symName: __ZNSt3__116reverse_iteratorIPNS_10unique_ptrI3APINS_14default_deleteIS2_EEEEEmmB8ne180100Ev, symObjAddr: 0xC890, symBinAddr: 0x10000DED0, symSize: 0x20 }
  - { offset: 0x20B80, size: 0x8, addend: 0x0, symName: __ZNSt3__116reverse_iteratorINS0_IPNS_10unique_ptrI3APINS_14default_deleteIS2_EEEEEEEC2B8ne180100ES7_, symObjAddr: 0xC8B0, symBinAddr: 0x10000DEF0, symSize: 0x40 }
  - { offset: 0x20BB8, size: 0x8, addend: 0x0, symName: __ZNSt3__116reverse_iteratorIPNS_10unique_ptrI3APINS_14default_deleteIS2_EEEEEC2B8ne180100ES6_, symObjAddr: 0xC8F0, symBinAddr: 0x10000DF30, symSize: 0x30 }
  - { offset: 0x20BF0, size: 0x8, addend: 0x0, symName: __ZNSt3__114__split_bufferINS_10unique_ptrI3APINS_14default_deleteIS2_EEEERNS_9allocatorIS5_EEED2Ev, symObjAddr: 0xC920, symBinAddr: 0x10000DF60, symSize: 0x70 }
  - { offset: 0x20C1C, size: 0x8, addend: 0x0, symName: __ZNSt3__114__split_bufferINS_10unique_ptrI3APINS_14default_deleteIS2_EEEERNS_9allocatorIS5_EEE5clearB8ne180100Ev, symObjAddr: 0xC990, symBinAddr: 0x10000DFD0, symSize: 0x20 }
  - { offset: 0x20C42, size: 0x8, addend: 0x0, symName: __ZNKSt3__114__split_bufferINS_10unique_ptrI3APINS_14default_deleteIS2_EEEERNS_9allocatorIS5_EEE8capacityB8ne180100Ev, symObjAddr: 0xC9B0, symBinAddr: 0x10000DFF0, symSize: 0x30 }
  - { offset: 0x20C68, size: 0x8, addend: 0x0, symName: __ZNSt3__114__split_bufferINS_10unique_ptrI3APINS_14default_deleteIS2_EEEERNS_9allocatorIS5_EEE17__destruct_at_endB8ne180100EPS5_, symObjAddr: 0xC9E0, symBinAddr: 0x10000E020, symSize: 0x30 }
  - { offset: 0x20C9C, size: 0x8, addend: 0x0, symName: __ZNSt3__114__split_bufferINS_10unique_ptrI3APINS_14default_deleteIS2_EEEERNS_9allocatorIS5_EEE17__destruct_at_endB8ne180100EPS5_NS_17integral_constantIbLb0EEE, symObjAddr: 0xCA10, symBinAddr: 0x10000E050, symSize: 0x80 }
  - { offset: 0x20CDD, size: 0x8, addend: 0x0, symName: __ZNKSt3__114__split_bufferINS_10unique_ptrI3APINS_14default_deleteIS2_EEEERNS_9allocatorIS5_EEE9__end_capB8ne180100Ev, symObjAddr: 0xCA90, symBinAddr: 0x10000E0D0, symSize: 0x20 }
  - { offset: 0x20D03, size: 0x8, addend: 0x0, symName: __ZNKSt3__117__compressed_pairIPNS_10unique_ptrI3APINS_14default_deleteIS2_EEEERNS_9allocatorIS5_EEE5firstB8ne180100Ev, symObjAddr: 0xCAB0, symBinAddr: 0x10000E0F0, symSize: 0x20 }
  - { offset: 0x20D29, size: 0x8, addend: 0x0, symName: __ZNSt3__110unique_ptrI8TypeExprNS_14default_deleteIS1_EEEC2B8ne180100ILb1EvEEPS1_, symObjAddr: 0xCAD0, symBinAddr: 0x10000E110, symSize: 0x40 }
  - { offset: 0x20D6C, size: 0x8, addend: 0x0, symName: __ZNSt3__117__compressed_pairIP8TypeExprNS_14default_deleteIS1_EEEC1B8ne180100IRS2_NS_16__value_init_tagEEEOT_OT0_, symObjAddr: 0xCB10, symBinAddr: 0x10000E150, symSize: 0x30 }
  - { offset: 0x20DC4, size: 0x8, addend: 0x0, symName: __ZNSt3__117__compressed_pairIP8TypeExprNS_14default_deleteIS1_EEEC2B8ne180100IRS2_NS_16__value_init_tagEEEOT_OT0_, symObjAddr: 0xCB40, symBinAddr: 0x10000E180, symSize: 0x40 }
  - { offset: 0x20E1C, size: 0x8, addend: 0x0, symName: __ZNSt3__122__compressed_pair_elemIP8TypeExprLi0ELb0EEC2B8ne180100IRS2_vEEOT_, symObjAddr: 0xCB80, symBinAddr: 0x10000E1C0, symSize: 0x20 }
  - { offset: 0x20E5E, size: 0x8, addend: 0x0, symName: __ZNSt3__122__compressed_pair_elemINS_14default_deleteI8TypeExprEELi1ELb1EEC2B8ne180100ENS_16__value_init_tagE, symObjAddr: 0xCBA0, symBinAddr: 0x10000E1E0, symSize: 0x10 }
  - { offset: 0x20E93, size: 0x8, addend: 0x0, symName: __ZNSt3__16vectorINS_10unique_ptrI8TypeExprNS_14default_deleteIS2_EEEENS_9allocatorIS5_EEE17__destruct_at_endB8ne180100EPS5_, symObjAddr: 0xCBB0, symBinAddr: 0x10000E1F0, symSize: 0x50 }
  - { offset: 0x20ED7, size: 0x8, addend: 0x0, symName: __ZNKSt3__16vectorINS_10unique_ptrI8TypeExprNS_14default_deleteIS2_EEEENS_9allocatorIS5_EEE17__annotate_shrinkB8ne180100Em, symObjAddr: 0xCC00, symBinAddr: 0x10000E240, symSize: 0x10 }
  - { offset: 0x20F0C, size: 0x8, addend: 0x0, symName: __ZNSt3__112basic_stringIcNS_11char_traitsIcEENS_9allocatorIcEEEC2B8ne180100ILi0EEEPKc, symObjAddr: 0xCC10, symBinAddr: 0x10000E250, symSize: 0x50 }
  - { offset: 0x20F4B, size: 0x8, addend: 0x0, symName: __ZNSt3__117__compressed_pairINS_12basic_stringIcNS_11char_traitsIcEENS_9allocatorIcEEE5__repES5_EC1B8ne180100INS_18__default_init_tagESA_EEOT_OT0_, symObjAddr: 0xCC60, symBinAddr: 0x10000E2A0, symSize: 0x30 }
  - { offset: 0x20FA3, size: 0x8, addend: 0x0, symName: __ZNSt3__111char_traitsIcE6lengthB8ne180100EPKc, symObjAddr: 0xCC90, symBinAddr: 0x10000E2D0, symSize: 0x30 }
  - { offset: 0x20FC6, size: 0x8, addend: 0x0, symName: __ZNSt3__117__compressed_pairINS_12basic_stringIcNS_11char_traitsIcEENS_9allocatorIcEEE5__repES5_EC2B8ne180100INS_18__default_init_tagESA_EEOT_OT0_, symObjAddr: 0xCCC0, symBinAddr: 0x10000E300, symSize: 0x30 }
  - { offset: 0x2101E, size: 0x8, addend: 0x0, symName: __ZNSt3__122__compressed_pair_elemINS_12basic_stringIcNS_11char_traitsIcEENS_9allocatorIcEEE5__repELi0ELb0EEC2B8ne180100ENS_18__default_init_tagE, symObjAddr: 0xCCF0, symBinAddr: 0x10000E330, symSize: 0x10 }
  - { offset: 0x21053, size: 0x8, addend: 0x0, symName: __ZNSt3__122__compressed_pair_elemINS_9allocatorIcEELi1ELb1EEC2B8ne180100ENS_18__default_init_tagE, symObjAddr: 0xCD00, symBinAddr: 0x10000E340, symSize: 0x20 }
  - { offset: 0x21088, size: 0x8, addend: 0x0, symName: __ZNSt3__19allocatorIcEC2B8ne180100Ev, symObjAddr: 0xCD20, symBinAddr: 0x10000E360, symSize: 0x20 }
  - { offset: 0x210B2, size: 0x8, addend: 0x0, symName: __ZNSt3__116__non_trivial_ifILb1ENS_9allocatorIcEEEC2B8ne180100Ev, symObjAddr: 0xCD40, symBinAddr: 0x10000E380, symSize: 0x10 }
  - { offset: 0x210DC, size: 0x8, addend: 0x0, symName: __ZNSt3__16vectorINS_10unique_ptrI4ExprNS_14default_deleteIS2_EEEENS_9allocatorIS5_EEEC2B8ne180100Ev, symObjAddr: 0xCD70, symBinAddr: 0x10000E3B0, symSize: 0x50 }
  - { offset: 0x21106, size: 0x8, addend: 0x0, symName: __ZNSt3__117__compressed_pairIPNS_10unique_ptrI4ExprNS_14default_deleteIS2_EEEENS_9allocatorIS5_EEEC1B8ne180100IDnNS_18__default_init_tagEEEOT_OT0_, symObjAddr: 0xCDC0, symBinAddr: 0x10000E400, symSize: 0x30 }
  - { offset: 0x2115E, size: 0x8, addend: 0x0, symName: __ZNSt3__117__compressed_pairIPNS_10unique_ptrI4ExprNS_14default_deleteIS2_EEEENS_9allocatorIS5_EEEC2B8ne180100IDnNS_18__default_init_tagEEEOT_OT0_, symObjAddr: 0xCDF0, symBinAddr: 0x10000E430, symSize: 0x40 }
  - { offset: 0x211B6, size: 0x8, addend: 0x0, symName: __ZNSt3__122__compressed_pair_elemINS_9allocatorINS_10unique_ptrI4ExprNS_14default_deleteIS3_EEEEEELi1ELb1EEC2B8ne180100ENS_18__default_init_tagE, symObjAddr: 0xCE30, symBinAddr: 0x10000E470, symSize: 0x20 }
  - { offset: 0x211EB, size: 0x8, addend: 0x0, symName: __ZNSt3__19allocatorINS_10unique_ptrI4ExprNS_14default_deleteIS2_EEEEEC2B8ne180100Ev, symObjAddr: 0xCE50, symBinAddr: 0x10000E490, symSize: 0x20 }
  - { offset: 0x21215, size: 0x8, addend: 0x0, symName: __ZNSt3__116__non_trivial_ifILb1ENS_9allocatorINS_10unique_ptrI4ExprNS_14default_deleteIS3_EEEEEEEC2B8ne180100Ev, symObjAddr: 0xCE70, symBinAddr: 0x10000E4B0, symSize: 0x10 }
  - { offset: 0x2123F, size: 0x8, addend: 0x0, symName: __ZNSt3__110unique_ptrI8FuncCallNS_14default_deleteIS1_EEEC2B8ne180100ILb1EvEEPS1_, symObjAddr: 0xCE80, symBinAddr: 0x10000E4C0, symSize: 0x40 }
  - { offset: 0x21282, size: 0x8, addend: 0x0, symName: __ZNSt3__117__compressed_pairIP8FuncCallNS_14default_deleteIS1_EEEC1B8ne180100IRS2_NS_16__value_init_tagEEEOT_OT0_, symObjAddr: 0xCEC0, symBinAddr: 0x10000E500, symSize: 0x30 }
  - { offset: 0x212DA, size: 0x8, addend: 0x0, symName: __ZNSt3__117__compressed_pairIP8FuncCallNS_14default_deleteIS1_EEEC2B8ne180100IRS2_NS_16__value_init_tagEEEOT_OT0_, symObjAddr: 0xCEF0, symBinAddr: 0x10000E530, symSize: 0x40 }
  - { offset: 0x21332, size: 0x8, addend: 0x0, symName: __ZNSt3__122__compressed_pair_elemIP8FuncCallLi0ELb0EEC2B8ne180100IRS2_vEEOT_, symObjAddr: 0xCF30, symBinAddr: 0x10000E570, symSize: 0x20 }
  - { offset: 0x21374, size: 0x8, addend: 0x0, symName: __ZNSt3__122__compressed_pair_elemINS_14default_deleteI8FuncCallEELi1ELb1EEC2B8ne180100ENS_16__value_init_tagE, symObjAddr: 0xCF50, symBinAddr: 0x10000E590, symSize: 0x10 }
  - { offset: 0x213A9, size: 0x8, addend: 0x0, symName: __ZNSt3__110unique_ptrI4ExprNS_14default_deleteIS1_EEEC2B8ne180100ILb1EvEEPS1_, symObjAddr: 0xCF60, symBinAddr: 0x10000E5A0, symSize: 0x40 }
  - { offset: 0x213EC, size: 0x8, addend: 0x0, symName: __ZNSt3__117__compressed_pairIP4ExprNS_14default_deleteIS1_EEEC1B8ne180100IRS2_NS_16__value_init_tagEEEOT_OT0_, symObjAddr: 0xCFA0, symBinAddr: 0x10000E5E0, symSize: 0x30 }
  - { offset: 0x21444, size: 0x8, addend: 0x0, symName: __ZNSt3__117__compressed_pairIP4ExprNS_14default_deleteIS1_EEEC2B8ne180100IRS2_NS_16__value_init_tagEEEOT_OT0_, symObjAddr: 0xCFD0, symBinAddr: 0x10000E610, symSize: 0x40 }
  - { offset: 0x2149C, size: 0x8, addend: 0x0, symName: __ZNSt3__122__compressed_pair_elemIP4ExprLi0ELb0EEC2B8ne180100IRS2_vEEOT_, symObjAddr: 0xD010, symBinAddr: 0x10000E650, symSize: 0x20 }
  - { offset: 0x214DE, size: 0x8, addend: 0x0, symName: __ZNSt3__122__compressed_pair_elemINS_14default_deleteI4ExprEELi1ELb1EEC2B8ne180100ENS_16__value_init_tagE, symObjAddr: 0xD030, symBinAddr: 0x10000E670, symSize: 0x10 }
  - { offset: 0x21513, size: 0x8, addend: 0x0, symName: __ZNSt3__110unique_ptrI7APIcallNS_14default_deleteIS1_EEEC2B8ne180100ILb1EvEEPS1_, symObjAddr: 0xD040, symBinAddr: 0x10000E680, symSize: 0x40 }
  - { offset: 0x21556, size: 0x8, addend: 0x0, symName: __ZNSt3__117__compressed_pairIP7APIcallNS_14default_deleteIS1_EEEC1B8ne180100IRS2_NS_16__value_init_tagEEEOT_OT0_, symObjAddr: 0xD080, symBinAddr: 0x10000E6C0, symSize: 0x30 }
  - { offset: 0x215AE, size: 0x8, addend: 0x0, symName: __ZNSt3__117__compressed_pairIP7APIcallNS_14default_deleteIS1_EEEC2B8ne180100IRS2_NS_16__value_init_tagEEEOT_OT0_, symObjAddr: 0xD0B0, symBinAddr: 0x10000E6F0, symSize: 0x40 }
  - { offset: 0x21606, size: 0x8, addend: 0x0, symName: __ZNSt3__122__compressed_pair_elemIP7APIcallLi0ELb0EEC2B8ne180100IRS2_vEEOT_, symObjAddr: 0xD0F0, symBinAddr: 0x10000E730, symSize: 0x20 }
  - { offset: 0x21648, size: 0x8, addend: 0x0, symName: __ZNSt3__122__compressed_pair_elemINS_14default_deleteI7APIcallEELi1ELb1EEC2B8ne180100ENS_16__value_init_tagE, symObjAddr: 0xD110, symBinAddr: 0x10000E750, symSize: 0x10 }
  - { offset: 0x2169B, size: 0x8, addend: 0x0, symName: __ZNKSt3__113basic_ostreamIcNS_11char_traitsIcEEE6sentrycvbB8ne180100Ev, symObjAddr: 0xD310, symBinAddr: 0x10000E950, symSize: 0x20 }
  - { offset: 0x216C1, size: 0x8, addend: 0x0, symName: __ZNSt3__119ostreambuf_iteratorIcNS_11char_traitsIcEEEC1B8ne180100ERNS_13basic_ostreamIcS2_EE, symObjAddr: 0xD550, symBinAddr: 0x10000EB90, symSize: 0x30 }
  - { offset: 0x216F9, size: 0x8, addend: 0x0, symName: __ZNKSt3__18ios_base5flagsB8ne180100Ev, symObjAddr: 0xD580, symBinAddr: 0x10000EBC0, symSize: 0x20 }
  - { offset: 0x21721, size: 0x8, addend: 0x0, symName: __ZNKSt3__19basic_iosIcNS_11char_traitsIcEEE4fillB8ne180100Ev, symObjAddr: 0xD5A0, symBinAddr: 0x10000EBE0, symSize: 0x70 }
  - { offset: 0x21749, size: 0x8, addend: 0x0, symName: __ZNKSt3__119ostreambuf_iteratorIcNS_11char_traitsIcEEE6failedB8ne180100Ev, symObjAddr: 0xD610, symBinAddr: 0x10000EC50, symSize: 0x20 }
  - { offset: 0x2176F, size: 0x8, addend: 0x0, symName: __ZNSt3__19basic_iosIcNS_11char_traitsIcEEE8setstateB8ne180100Ej, symObjAddr: 0xD630, symBinAddr: 0x10000EC70, symSize: 0x30 }
  - { offset: 0x217A4, size: 0x8, addend: 0x0, symName: __ZNKSt3__18ios_base5widthB8ne180100Ev, symObjAddr: 0xD660, symBinAddr: 0x10000ECA0, symSize: 0x20 }
  - { offset: 0x217CC, size: 0x8, addend: 0x0, symName: __ZNSt3__115basic_streambufIcNS_11char_traitsIcEEE5sputnB8ne180100EPKcl, symObjAddr: 0xD680, symBinAddr: 0x10000ECC0, symSize: 0x30 }
  - { offset: 0x2180E, size: 0x8, addend: 0x0, symName: __ZNSt3__112basic_stringIcNS_11char_traitsIcEENS_9allocatorIcEEEC1B8ne180100Emc, symObjAddr: 0xD6B0, symBinAddr: 0x10000ECF0, symSize: 0x30 }
  - { offset: 0x21856, size: 0x8, addend: 0x0, symName: __ZNKSt3__112basic_stringIcNS_11char_traitsIcEENS_9allocatorIcEEE4dataB8ne180100Ev, symObjAddr: 0xD6E0, symBinAddr: 0x10000ED20, symSize: 0x30 }
  - { offset: 0x2187C, size: 0x8, addend: 0x0, symName: __ZNSt3__18ios_base5widthB8ne180100El, symObjAddr: 0xD710, symBinAddr: 0x10000ED50, symSize: 0x30 }
  - { offset: 0x218C2, size: 0x8, addend: 0x0, symName: __ZNSt3__112basic_stringIcNS_11char_traitsIcEENS_9allocatorIcEEEC2B8ne180100Emc, symObjAddr: 0xD740, symBinAddr: 0x10000ED80, symSize: 0x50 }
  - { offset: 0x2190A, size: 0x8, addend: 0x0, symName: __ZNKSt3__112basic_stringIcNS_11char_traitsIcEENS_9allocatorIcEEE13__get_pointerB8ne180100Ev, symObjAddr: 0xD7A0, symBinAddr: 0x10000EDE0, symSize: 0x50 }
  - { offset: 0x21930, size: 0x8, addend: 0x0, symName: __ZNKSt3__112basic_stringIcNS_11char_traitsIcEENS_9allocatorIcEEE18__get_long_pointerB8ne180100Ev, symObjAddr: 0xD7F0, symBinAddr: 0x10000EE30, symSize: 0x20 }
  - { offset: 0x21956, size: 0x8, addend: 0x0, symName: __ZNKSt3__112basic_stringIcNS_11char_traitsIcEENS_9allocatorIcEEE19__get_short_pointerB8ne180100Ev, symObjAddr: 0xD810, symBinAddr: 0x10000EE50, symSize: 0x30 }
  - { offset: 0x2197C, size: 0x8, addend: 0x0, symName: __ZNSt3__114pointer_traitsIPKcE10pointer_toB8ne180100ERS1_, symObjAddr: 0xD840, symBinAddr: 0x10000EE80, symSize: 0x10 }
  - { offset: 0x2199F, size: 0x8, addend: 0x0, symName: __ZNSt3__119ostreambuf_iteratorIcNS_11char_traitsIcEEEC2B8ne180100ERNS_13basic_ostreamIcS2_EE, symObjAddr: 0xD850, symBinAddr: 0x10000EE90, symSize: 0x50 }
  - { offset: 0x219D7, size: 0x8, addend: 0x0, symName: __ZNKSt3__19basic_iosIcNS_11char_traitsIcEEE5rdbufB8ne180100Ev, symObjAddr: 0xD8A0, symBinAddr: 0x10000EEE0, symSize: 0x20 }
  - { offset: 0x219FF, size: 0x8, addend: 0x0, symName: __ZNKSt3__18ios_base5rdbufB8ne180100Ev, symObjAddr: 0xD8C0, symBinAddr: 0x10000EF00, symSize: 0x20 }
  - { offset: 0x21A25, size: 0x8, addend: 0x0, symName: __ZNSt3__111char_traitsIcE11eq_int_typeB8ne180100Eii, symObjAddr: 0xD8E0, symBinAddr: 0x10000EF20, symSize: 0x20 }
  - { offset: 0x21A58, size: 0x8, addend: 0x0, symName: __ZNSt3__111char_traitsIcE3eofB8ne180100Ev, symObjAddr: 0xD900, symBinAddr: 0x10000EF40, symSize: 0x10 }
  - { offset: 0x21A6C, size: 0x8, addend: 0x0, symName: __ZNKSt3__19basic_iosIcNS_11char_traitsIcEEE5widenB8ne180100Ec, symObjAddr: 0xD910, symBinAddr: 0x10000EF50, symSize: 0x80 }
  - { offset: 0x21AE5, size: 0x8, addend: 0x0, symName: __ZNKSt3__15ctypeIcE5widenB8ne180100Ec, symObjAddr: 0xD9C0, symBinAddr: 0x10000F000, symSize: 0x30 }
  - { offset: 0x21B1A, size: 0x8, addend: 0x0, symName: __ZNSt3__18ios_base8setstateB8ne180100Ej, symObjAddr: 0xD9F0, symBinAddr: 0x10000F030, symSize: 0x24 }
  - { offset: 0x241E7, size: 0x8, addend: 0x0, symName: _yyleng, symObjAddr: 0x17C80, symBinAddr: 0x100017088, symSize: 0x0 }
  - { offset: 0x24225, size: 0x8, addend: 0x0, symName: _yyin, symObjAddr: 0x17C88, symBinAddr: 0x100017090, symSize: 0x0 }
  - { offset: 0x24409, size: 0x8, addend: 0x0, symName: _yyout, symObjAddr: 0x17C90, symBinAddr: 0x100017098, symSize: 0x0 }
  - { offset: 0x2441F, size: 0x8, addend: 0x0, symName: _yylineno, symObjAddr: 0x2834, symBinAddr: 0x100017000, symSize: 0x0 }
  - { offset: 0x24435, size: 0x8, addend: 0x0, symName: _yy_flex_debug, symObjAddr: 0x17C98, symBinAddr: 0x1000170A0, symSize: 0x0 }
  - { offset: 0x2444B, size: 0x8, addend: 0x0, symName: _yytext, symObjAddr: 0x17CA0, symBinAddr: 0x1000170A8, symSize: 0x0 }
  - { offset: 0x24461, size: 0x8, addend: 0x0, symName: __ZL7yy_init, symObjAddr: 0x17CA8, symBinAddr: 0x1000170B0, symSize: 0x0 }
  - { offset: 0x2447B, size: 0x8, addend: 0x0, symName: __ZL8yy_start, symObjAddr: 0x17CAC, symBinAddr: 0x1000170B4, symSize: 0x0 }
  - { offset: 0x24495, size: 0x8, addend: 0x0, symName: __ZL15yy_buffer_stack, symObjAddr: 0x17CB0, symBinAddr: 0x1000170B8, symSize: 0x0 }
  - { offset: 0x2455E, size: 0x8, addend: 0x0, symName: __ZL19yy_buffer_stack_top, symObjAddr: 0x17CB8, symBinAddr: 0x1000170C0, symSize: 0x0 }
  - { offset: 0x24578, size: 0x8, addend: 0x0, symName: __ZL10yy_c_buf_p, symObjAddr: 0x17CC0, symBinAddr: 0x1000170C8, symSize: 0x0 }
  - { offset: 0x24592, size: 0x8, addend: 0x0, symName: __ZL12yy_hold_char, symObjAddr: 0x17CC8, symBinAddr: 0x1000170D0, symSize: 0x0 }
  - { offset: 0x245AC, size: 0x8, addend: 0x0, symName: __ZL5yy_ec, symObjAddr: 0x2840, symBinAddr: 0x100014BC0, symSize: 0x0 }
  - { offset: 0x245EF, size: 0x8, addend: 0x0, symName: __ZL9yy_accept, symObjAddr: 0x2940, symBinAddr: 0x100014CC0, symSize: 0x0 }
  - { offset: 0x24625, size: 0x8, addend: 0x0, symName: __ZL23yy_last_accepting_state, symObjAddr: 0x17CCC, symBinAddr: 0x1000170D4, symSize: 0x0 }
  - { offset: 0x2464B, size: 0x8, addend: 0x0, symName: __ZL22yy_last_accepting_cpos, symObjAddr: 0x17CD0, symBinAddr: 0x1000170D8, symSize: 0x0 }
  - { offset: 0x24665, size: 0x8, addend: 0x0, symName: __ZL6yy_chk, symObjAddr: 0x29F0, symBinAddr: 0x100014D70, symSize: 0x0 }
  - { offset: 0x2468B, size: 0x8, addend: 0x0, symName: __ZL7yy_base, symObjAddr: 0x2B30, symBinAddr: 0x100014EB0, symSize: 0x0 }
  - { offset: 0x246B1, size: 0x8, addend: 0x0, symName: __ZL6yy_def, symObjAddr: 0x2BE0, symBinAddr: 0x100014F60, symSize: 0x0 }
  - { offset: 0x246CB, size: 0x8, addend: 0x0, symName: __ZL7yy_meta, symObjAddr: 0x2C90, symBinAddr: 0x100015010, symSize: 0x0 }
  - { offset: 0x246F1, size: 0x8, addend: 0x0, symName: __ZL6yy_nxt, symObjAddr: 0x2CC0, symBinAddr: 0x100015040, symSize: 0x0 }
  - { offset: 0x2470B, size: 0x8, addend: 0x0, symName: __ZL21yy_rule_can_match_eol, symObjAddr: 0x2E00, symBinAddr: 0x100015180, symSize: 0x0 }
  - { offset: 0x24741, size: 0x8, addend: 0x0, symName: __ZL10yy_n_chars, symObjAddr: 0x17CD8, symBinAddr: 0x1000170E0, symSize: 0x0 }
  - { offset: 0x2475B, size: 0x8, addend: 0x0, symName: __ZL27yy_did_buffer_switch_on_eof, symObjAddr: 0x17CE0, symBinAddr: 0x1000170E8, symSize: 0x0 }
  - { offset: 0x24775, size: 0x8, addend: 0x0, symName: __ZL19yy_buffer_stack_max, symObjAddr: 0x17CE8, symBinAddr: 0x1000170F0, symSize: 0x0 }
  - { offset: 0x2738B, size: 0x8, addend: 0x0, symName: _yywrap, symObjAddr: 0x0, symBinAddr: 0x10000F140, symSize: 0x10 }
  - { offset: 0x273A4, size: 0x8, addend: 0x0, symName: __Z5yylexv, symObjAddr: 0x10, symBinAddr: 0x10000F150, symSize: 0x9B0 }
  - { offset: 0x274B9, size: 0x8, addend: 0x0, symName: __ZL21yyensure_buffer_stackv, symObjAddr: 0x9C0, symBinAddr: 0x10000FB00, symSize: 0x120 }
  - { offset: 0x27501, size: 0x8, addend: 0x0, symName: __Z16yy_create_bufferP7__sFILEi, symObjAddr: 0xAE0, symBinAddr: 0x10000FC20, symSize: 0xA0 }
  - { offset: 0x2754E, size: 0x8, addend: 0x0, symName: __ZL20yy_load_buffer_statev, symObjAddr: 0xB80, symBinAddr: 0x10000FCC0, symSize: 0x80 }
  - { offset: 0x2756E, size: 0x8, addend: 0x0, symName: __ZNKSt3__112basic_stringIcNS_11char_traitsIcEENS_9allocatorIcEEE6substrB8ne180100Emm, symObjAddr: 0xC30, symBinAddr: 0x10000FD40, symSize: 0x70 }
  - { offset: 0x275B2, size: 0x8, addend: 0x0, symName: __ZNSt3__112basic_stringIcNS_11char_traitsIcEENS_9allocatorIcEEEaSB8ne180100EOS5_, symObjAddr: 0xCF0, symBinAddr: 0x10000FDB0, symSize: 0x30 }
  - { offset: 0x275E7, size: 0x8, addend: 0x0, symName: __ZL21yy_get_previous_statev, symObjAddr: 0xD20, symBinAddr: 0x10000FDE0, symSize: 0x130 }
  - { offset: 0x27643, size: 0x8, addend: 0x0, symName: __ZL16yy_try_NUL_transi, symObjAddr: 0xE50, symBinAddr: 0x10000FF10, symSize: 0x100 }
  - { offset: 0x2769F, size: 0x8, addend: 0x0, symName: __ZL18yy_get_next_bufferv, symObjAddr: 0xF50, symBinAddr: 0x100010010, symSize: 0x660 }
  - { offset: 0x277C1, size: 0x8, addend: 0x0, symName: __Z9yyrestartP7__sFILE, symObjAddr: 0x15B0, symBinAddr: 0x100010670, symSize: 0xD0 }
  - { offset: 0x277EC, size: 0x8, addend: 0x0, symName: __ZL14yy_fatal_errorPKc, symObjAddr: 0x1680, symBinAddr: 0x100010740, symSize: 0x40 }
  - { offset: 0x27817, size: 0x8, addend: 0x0, symName: __ZL14yy_init_bufferP15yy_buffer_stateP7__sFILE, symObjAddr: 0x16C0, symBinAddr: 0x100010780, symSize: 0x100 }
  - { offset: 0x2785F, size: 0x8, addend: 0x0, symName: __Z19yy_switch_to_bufferP15yy_buffer_state, symObjAddr: 0x17C0, symBinAddr: 0x100010880, symSize: 0x110 }
  - { offset: 0x27889, size: 0x8, addend: 0x0, symName: __Z7yyallocm, symObjAddr: 0x18D0, symBinAddr: 0x100010990, symSize: 0x20 }
  - { offset: 0x278B7, size: 0x8, addend: 0x0, symName: __Z16yy_delete_bufferP15yy_buffer_state, symObjAddr: 0x18F0, symBinAddr: 0x1000109B0, symSize: 0xB0 }
  - { offset: 0x278E1, size: 0x8, addend: 0x0, symName: __Z6yyfreePv, symObjAddr: 0x19A0, symBinAddr: 0x100010A60, symSize: 0x20 }
  - { offset: 0x2790B, size: 0x8, addend: 0x0, symName: __Z15yy_flush_bufferP15yy_buffer_state, symObjAddr: 0x19C0, symBinAddr: 0x100010A80, symSize: 0xC0 }
  - { offset: 0x27935, size: 0x8, addend: 0x0, symName: __Z19yypush_buffer_stateP15yy_buffer_state, symObjAddr: 0x1A80, symBinAddr: 0x100010B40, symSize: 0x130 }
  - { offset: 0x27960, size: 0x8, addend: 0x0, symName: __Z18yypop_buffer_statev, symObjAddr: 0x1BB0, symBinAddr: 0x100010C70, symSize: 0x120 }
  - { offset: 0x2797A, size: 0x8, addend: 0x0, symName: __Z14yy_scan_bufferPcm, symObjAddr: 0x1CD0, symBinAddr: 0x100010D90, symSize: 0x120 }
  - { offset: 0x279C6, size: 0x8, addend: 0x0, symName: __Z14yy_scan_stringPKc, symObjAddr: 0x1DF0, symBinAddr: 0x100010EB0, symSize: 0x30 }
  - { offset: 0x279F4, size: 0x8, addend: 0x0, symName: __Z13yy_scan_bytesPKcm, symObjAddr: 0x1E20, symBinAddr: 0x100010EE0, symSize: 0xE0 }
  - { offset: 0x27A6E, size: 0x8, addend: 0x0, symName: __Z12yyget_linenov, symObjAddr: 0x1F00, symBinAddr: 0x100010FC0, symSize: 0x10 }
  - { offset: 0x27A8D, size: 0x8, addend: 0x0, symName: __Z8yyget_inv, symObjAddr: 0x1F10, symBinAddr: 0x100010FD0, symSize: 0x10 }
  - { offset: 0x27AAC, size: 0x8, addend: 0x0, symName: __Z9yyget_outv, symObjAddr: 0x1F20, symBinAddr: 0x100010FE0, symSize: 0x10 }
  - { offset: 0x27ACB, size: 0x8, addend: 0x0, symName: __Z10yyget_lengv, symObjAddr: 0x1F30, symBinAddr: 0x100010FF0, symSize: 0x10 }
  - { offset: 0x27AEA, size: 0x8, addend: 0x0, symName: __Z10yyget_textv, symObjAddr: 0x1F40, symBinAddr: 0x100011000, symSize: 0x10 }
  - { offset: 0x27B08, size: 0x8, addend: 0x0, symName: __Z12yyset_linenoi, symObjAddr: 0x1F50, symBinAddr: 0x100011010, symSize: 0x20 }
  - { offset: 0x27B32, size: 0x8, addend: 0x0, symName: __Z8yyset_inP7__sFILE, symObjAddr: 0x1F70, symBinAddr: 0x100011030, symSize: 0x20 }
  - { offset: 0x27B5C, size: 0x8, addend: 0x0, symName: __Z9yyset_outP7__sFILE, symObjAddr: 0x1F90, symBinAddr: 0x100011050, symSize: 0x20 }
  - { offset: 0x27B87, size: 0x8, addend: 0x0, symName: __Z11yyget_debugv, symObjAddr: 0x1FB0, symBinAddr: 0x100011070, symSize: 0x10 }
  - { offset: 0x27BA5, size: 0x8, addend: 0x0, symName: __Z11yyset_debugi, symObjAddr: 0x1FC0, symBinAddr: 0x100011080, symSize: 0x20 }
  - { offset: 0x27BD0, size: 0x8, addend: 0x0, symName: __Z13yylex_destroyv, symObjAddr: 0x1FE0, symBinAddr: 0x1000110A0, symSize: 0xD0 }
  - { offset: 0x27BEF, size: 0x8, addend: 0x0, symName: __ZL15yy_init_globalsv, symObjAddr: 0x20B0, symBinAddr: 0x100011170, symSize: 0x70 }
  - { offset: 0x27C0D, size: 0x8, addend: 0x0, symName: __Z9yyreallocPvm, symObjAddr: 0x2120, symBinAddr: 0x1000111E0, symSize: 0x30 }
  - { offset: 0x27C4B, size: 0x8, addend: 0x0, symName: __ZNSt3__19allocatorIcEC1B8ne180100Ev, symObjAddr: 0x22C0, symBinAddr: 0x100011210, symSize: 0x20 }
  - { offset: 0x27C75, size: 0x8, addend: 0x0, symName: __ZNSt3__112basic_stringIcNS_11char_traitsIcEENS_9allocatorIcEEE13__move_assignB8ne180100ERS5_NS_17integral_constantIbLb1EEE, symObjAddr: 0x2390, symBinAddr: 0x100011230, symSize: 0x160 }
  - { offset: 0x27CD6, size: 0x8, addend: 0x0, symName: __ZNSt3__116allocator_traitsINS_9allocatorIcEEE10deallocateB8ne180100ERS2_Pcm, symObjAddr: 0x2500, symBinAddr: 0x100011390, symSize: 0x30 }
  - { offset: 0x27D18, size: 0x8, addend: 0x0, symName: __ZNSt3__112basic_stringIcNS_11char_traitsIcEENS_9allocatorIcEEE7__allocB8ne180100Ev, symObjAddr: 0x2530, symBinAddr: 0x1000113C0, symSize: 0x20 }
  - { offset: 0x27D3E, size: 0x8, addend: 0x0, symName: __ZNSt3__112basic_stringIcNS_11char_traitsIcEENS_9allocatorIcEEE18__get_long_pointerB8ne180100Ev, symObjAddr: 0x2550, symBinAddr: 0x1000113E0, symSize: 0x20 }
  - { offset: 0x27D64, size: 0x8, addend: 0x0, symName: __ZNKSt3__112basic_stringIcNS_11char_traitsIcEENS_9allocatorIcEEE14__get_long_capB8ne180100Ev, symObjAddr: 0x2570, symBinAddr: 0x100011400, symSize: 0x30 }
  - { offset: 0x27D8A, size: 0x8, addend: 0x0, symName: __ZNSt3__112basic_stringIcNS_11char_traitsIcEENS_9allocatorIcEEE19__move_assign_allocB8ne180100ERS5_, symObjAddr: 0x25A0, symBinAddr: 0x100011430, symSize: 0x30 }
  - { offset: 0x27DBF, size: 0x8, addend: 0x0, symName: __ZNSt3__112basic_stringIcNS_11char_traitsIcEENS_9allocatorIcEEE16__set_short_sizeB8ne180100Em, symObjAddr: 0x25F0, symBinAddr: 0x100011460, symSize: 0x50 }
  - { offset: 0x27DF4, size: 0x8, addend: 0x0, symName: __ZNSt3__111char_traitsIcE6assignB8ne180100ERcRKc, symObjAddr: 0x2640, symBinAddr: 0x1000114B0, symSize: 0x20 }
  - { offset: 0x27E25, size: 0x8, addend: 0x0, symName: __ZNSt3__112basic_stringIcNS_11char_traitsIcEENS_9allocatorIcEEE19__get_short_pointerB8ne180100Ev, symObjAddr: 0x2660, symBinAddr: 0x1000114D0, symSize: 0x30 }
  - { offset: 0x27E4B, size: 0x8, addend: 0x0, symName: __ZNKSt3__112basic_stringIcNS_11char_traitsIcEENS_9allocatorIcEEE17__annotate_shrinkB8ne180100Em, symObjAddr: 0x2690, symBinAddr: 0x100011500, symSize: 0x10 }
  - { offset: 0x27E80, size: 0x8, addend: 0x0, symName: __ZNSt3__19allocatorIcE10deallocateB8ne180100EPcm, symObjAddr: 0x26B0, symBinAddr: 0x100011510, symSize: 0x40 }
  - { offset: 0x27EC2, size: 0x8, addend: 0x0, symName: __ZNSt3__117__compressed_pairINS_12basic_stringIcNS_11char_traitsIcEENS_9allocatorIcEEE5__repES5_E6secondB8ne180100Ev, symObjAddr: 0x2760, symBinAddr: 0x100011550, symSize: 0x20 }
  - { offset: 0x27EE8, size: 0x8, addend: 0x0, symName: __ZNSt3__122__compressed_pair_elemINS_9allocatorIcEELi1ELb1EE5__getB8ne180100Ev, symObjAddr: 0x2780, symBinAddr: 0x100011570, symSize: 0x10 }
  - { offset: 0x27F0E, size: 0x8, addend: 0x0, symName: __ZNSt3__112basic_stringIcNS_11char_traitsIcEENS_9allocatorIcEEE19__move_assign_allocB8ne180100ERS5_NS_17integral_constantIbLb1EEE, symObjAddr: 0x2790, symBinAddr: 0x100011580, symSize: 0x30 }
  - { offset: 0x27F4F, size: 0x8, addend: 0x0, symName: __ZNSt3__114pointer_traitsIPcE10pointer_toB8ne180100ERc, symObjAddr: 0x27D0, symBinAddr: 0x1000115B0, symSize: 0xE }
  - { offset: 0x32F2B, size: 0x8, addend: 0x0, symName: __ZNSt3__1lsB8ne180100IcNS_11char_traitsIcEENS_9allocatorIcEEEERNS_13basic_ostreamIT_T0_EES9_RKNS_12basic_stringIS6_S7_T1_EE, symObjAddr: 0x50, symBinAddr: 0x100011610, symSize: 0x50 }
  - { offset: 0x32F83, size: 0x8, addend: 0x0, symName: __ZNSt3__1neB8ne180100IPKNS_10unique_ptrI8TypeExprNS_14default_deleteIS2_EEEEEEbRKNS_11__wrap_iterIT_EESC_, symObjAddr: 0x320, symBinAddr: 0x100011810, symSize: 0x30 }
  - { offset: 0x32FC6, size: 0x8, addend: 0x0, symName: __ZNSt3__1neB8ne180100IPKNS_10unique_ptrI4ExprNS_14default_deleteIS2_EEEEEEbRKNS_11__wrap_iterIT_EESC_, symObjAddr: 0x600, symBinAddr: 0x100011AF0, symSize: 0x30 }
  - { offset: 0x33009, size: 0x8, addend: 0x0, symName: __ZNSt3__1neB8ne180100IPKNS_4pairINS_10unique_ptrI3VarNS_14default_deleteIS3_EEEENS2_I4ExprNS4_IS7_EEEEEEEEbRKNS_11__wrap_iterIT_EESH_, symObjAddr: 0xC20, symBinAddr: 0x100012110, symSize: 0x30 }
  - { offset: 0x3304C, size: 0x8, addend: 0x0, symName: __ZNSt3__1neB8ne180100IPKNS_10unique_ptrI4DeclNS_14default_deleteIS2_EEEEEEbRKNS_11__wrap_iterIT_EESC_, symObjAddr: 0x1770, symBinAddr: 0x100012C40, symSize: 0x30 }
  - { offset: 0x3308F, size: 0x8, addend: 0x0, symName: __ZNSt3__1neB8ne180100IPKNS_10unique_ptrI4InitNS_14default_deleteIS2_EEEEEEbRKNS_11__wrap_iterIT_EESC_, symObjAddr: 0x1880, symBinAddr: 0x100012D50, symSize: 0x30 }
  - { offset: 0x330D2, size: 0x8, addend: 0x0, symName: __ZNSt3__1neB8ne180100IPKNS_10unique_ptrI8FuncDeclNS_14default_deleteIS2_EEEEEEbRKNS_11__wrap_iterIT_EESC_, symObjAddr: 0x19C0, symBinAddr: 0x100012E70, symSize: 0x30 }
  - { offset: 0x33115, size: 0x8, addend: 0x0, symName: __ZNSt3__1neB8ne180100IPKNS_10unique_ptrI3APINS_14default_deleteIS2_EEEEEEbRKNS_11__wrap_iterIT_EESC_, symObjAddr: 0x1B00, symBinAddr: 0x100012F90, symSize: 0x30 }
  - { offset: 0x33158, size: 0x8, addend: 0x0, symName: __ZNSt3__1neB8ne180100IPKNS_10unique_ptrI4StmtNS_14default_deleteIS2_EEEEEEbRKNS_11__wrap_iterIT_EESC_, symObjAddr: 0x1E00, symBinAddr: 0x100013290, symSize: 0x30 }
  - { offset: 0x3319B, size: 0x8, addend: 0x0, symName: __ZNSt3__1eqB8ne180100IPKNS_10unique_ptrI8TypeExprNS_14default_deleteIS2_EEEEEEbRKNS_11__wrap_iterIT_EESC_, symObjAddr: 0x1EE0, symBinAddr: 0x100013370, symSize: 0x40 }
  - { offset: 0x331DE, size: 0x8, addend: 0x0, symName: __ZNSt3__1eqB8ne180100IPKNS_10unique_ptrI4ExprNS_14default_deleteIS2_EEEEEEbRKNS_11__wrap_iterIT_EESC_, symObjAddr: 0x1F40, symBinAddr: 0x1000133D0, symSize: 0x40 }
  - { offset: 0x33221, size: 0x8, addend: 0x0, symName: __ZNSt3__1eqB8ne180100IPKNS_4pairINS_10unique_ptrI3VarNS_14default_deleteIS3_EEEENS2_I4ExprNS4_IS7_EEEEEEEEbRKNS_11__wrap_iterIT_EESH_, symObjAddr: 0x1FA0, symBinAddr: 0x100013430, symSize: 0x40 }
  - { offset: 0x33264, size: 0x8, addend: 0x0, symName: __ZNSt3__1eqB8ne180100IPKNS_10unique_ptrI4DeclNS_14default_deleteIS2_EEEEEEbRKNS_11__wrap_iterIT_EESC_, symObjAddr: 0x2000, symBinAddr: 0x100013490, symSize: 0x40 }
  - { offset: 0x332A7, size: 0x8, addend: 0x0, symName: __ZNSt3__1eqB8ne180100IPKNS_10unique_ptrI4InitNS_14default_deleteIS2_EEEEEEbRKNS_11__wrap_iterIT_EESC_, symObjAddr: 0x2060, symBinAddr: 0x1000134F0, symSize: 0x40 }
  - { offset: 0x332EA, size: 0x8, addend: 0x0, symName: __ZNSt3__1eqB8ne180100IPKNS_10unique_ptrI8FuncDeclNS_14default_deleteIS2_EEEEEEbRKNS_11__wrap_iterIT_EESC_, symObjAddr: 0x20C0, symBinAddr: 0x100013550, symSize: 0x40 }
  - { offset: 0x3332D, size: 0x8, addend: 0x0, symName: __ZNSt3__1eqB8ne180100IPKNS_10unique_ptrI3APINS_14default_deleteIS2_EEEEEEbRKNS_11__wrap_iterIT_EESC_, symObjAddr: 0x2120, symBinAddr: 0x1000135B0, symSize: 0x40 }
  - { offset: 0x33370, size: 0x8, addend: 0x0, symName: __ZNSt3__1eqB8ne180100IPKNS_10unique_ptrI4StmtNS_14default_deleteIS2_EEEEEEbRKNS_11__wrap_iterIT_EESC_, symObjAddr: 0x2180, symBinAddr: 0x100013610, symSize: 0x40 }
  - { offset: 0x35088, size: 0x8, addend: 0x0, symName: __ZN12PrintVisitor5visitERK9TypeConst, symObjAddr: 0x0, symBinAddr: 0x1000115C0, symSize: 0x50 }
  - { offset: 0x350BE, size: 0x8, addend: 0x0, symName: __ZN12PrintVisitor5visitERK8FuncType, symObjAddr: 0x150, symBinAddr: 0x100011660, symSize: 0x150 }
  - { offset: 0x35147, size: 0x8, addend: 0x0, symName: __ZNKSt3__16vectorINS_10unique_ptrI8TypeExprNS_14default_deleteIS2_EEEENS_9allocatorIS5_EEE5beginB8ne180100Ev, symObjAddr: 0x2C0, symBinAddr: 0x1000117B0, symSize: 0x30 }
  - { offset: 0x3516F, size: 0x8, addend: 0x0, symName: __ZNKSt3__16vectorINS_10unique_ptrI8TypeExprNS_14default_deleteIS2_EEEENS_9allocatorIS5_EEE3endB8ne180100Ev, symObjAddr: 0x2F0, symBinAddr: 0x1000117E0, symSize: 0x30 }
  - { offset: 0x35197, size: 0x8, addend: 0x0, symName: __ZNKSt3__111__wrap_iterIPKNS_10unique_ptrI8TypeExprNS_14default_deleteIS2_EEEEEdeB8ne180100Ev, symObjAddr: 0x350, symBinAddr: 0x100011840, symSize: 0x20 }
  - { offset: 0x351BD, size: 0x8, addend: 0x0, symName: __ZNKSt3__110unique_ptrI8TypeExprNS_14default_deleteIS1_EEEptB8ne180100Ev, symObjAddr: 0x370, symBinAddr: 0x100011860, symSize: 0x20 }
  - { offset: 0x351E3, size: 0x8, addend: 0x0, symName: __ZNSt3__111__wrap_iterIPKNS_10unique_ptrI8TypeExprNS_14default_deleteIS2_EEEEEppB8ne180100Ev, symObjAddr: 0x390, symBinAddr: 0x100011880, symSize: 0x20 }
  - { offset: 0x35209, size: 0x8, addend: 0x0, symName: __ZNKSt3__110unique_ptrI8TypeExprNS_14default_deleteIS1_EEEcvbB8ne180100Ev, symObjAddr: 0x3B0, symBinAddr: 0x1000118A0, symSize: 0x30 }
  - { offset: 0x3522F, size: 0x8, addend: 0x0, symName: __ZN12PrintVisitor5visitERK7MapType, symObjAddr: 0x3E0, symBinAddr: 0x1000118D0, symSize: 0xB0 }
  - { offset: 0x35265, size: 0x8, addend: 0x0, symName: __ZN12PrintVisitor5visitERK5Tuple, symObjAddr: 0x490, symBinAddr: 0x100011980, symSize: 0xF0 }
  - { offset: 0x352EE, size: 0x8, addend: 0x0, symName: __ZNKSt3__16vectorINS_10unique_ptrI4ExprNS_14default_deleteIS2_EEEENS_9allocatorIS5_EEE4sizeB8ne180100Ev, symObjAddr: 0x580, symBinAddr: 0x100011A70, symSize: 0x20 }
  - { offset: 0x35314, size: 0x8, addend: 0x0, symName: __ZNKSt3__16vectorINS_10unique_ptrI4ExprNS_14default_deleteIS2_EEEENS_9allocatorIS5_EEE5beginB8ne180100Ev, symObjAddr: 0x5A0, symBinAddr: 0x100011A90, symSize: 0x30 }
  - { offset: 0x3533C, size: 0x8, addend: 0x0, symName: __ZNKSt3__16vectorINS_10unique_ptrI4ExprNS_14default_deleteIS2_EEEENS_9allocatorIS5_EEE3endB8ne180100Ev, symObjAddr: 0x5D0, symBinAddr: 0x100011AC0, symSize: 0x30 }
  - { offset: 0x35364, size: 0x8, addend: 0x0, symName: __ZNKSt3__111__wrap_iterIPKNS_10unique_ptrI4ExprNS_14default_deleteIS2_EEEEEdeB8ne180100Ev, symObjAddr: 0x630, symBinAddr: 0x100011B20, symSize: 0x20 }
  - { offset: 0x3538A, size: 0x8, addend: 0x0, symName: __ZNKSt3__110unique_ptrI4ExprNS_14default_deleteIS1_EEEptB8ne180100Ev, symObjAddr: 0x650, symBinAddr: 0x100011B40, symSize: 0x20 }
  - { offset: 0x353B0, size: 0x8, addend: 0x0, symName: __ZNSt3__111__wrap_iterIPKNS_10unique_ptrI4ExprNS_14default_deleteIS2_EEEEEppB8ne180100Ev, symObjAddr: 0x670, symBinAddr: 0x100011B60, symSize: 0x20 }
  - { offset: 0x353D6, size: 0x8, addend: 0x0, symName: __ZN12PrintVisitor5visitERK7SetType, symObjAddr: 0x690, symBinAddr: 0x100011B80, symSize: 0x70 }
  - { offset: 0x3540C, size: 0x8, addend: 0x0, symName: __ZN12PrintVisitor5visitERK4Decl, symObjAddr: 0x700, symBinAddr: 0x100011BF0, symSize: 0x90 }
  - { offset: 0x35442, size: 0x8, addend: 0x0, symName: __ZN12PrintVisitor5visitERK3Var, symObjAddr: 0x790, symBinAddr: 0x100011C80, symSize: 0x50 }
  - { offset: 0x35478, size: 0x8, addend: 0x0, symName: __ZN12PrintVisitor5visitERK8FuncCall, symObjAddr: 0x7E0, symBinAddr: 0x100011CD0, symSize: 0x100 }
  - { offset: 0x35501, size: 0x8, addend: 0x0, symName: __ZN12PrintVisitor5visitERK3Num, symObjAddr: 0x8E0, symBinAddr: 0x100011DD0, symSize: 0x50 }
  - { offset: 0x35537, size: 0x8, addend: 0x0, symName: __ZN12PrintVisitor5visitERK6String, symObjAddr: 0x930, symBinAddr: 0x100011E20, symSize: 0x50 }
  - { offset: 0x3556D, size: 0x8, addend: 0x0, symName: __ZN12PrintVisitor5visitERK3Set, symObjAddr: 0x980, symBinAddr: 0x100011E70, symSize: 0xF0 }
  - { offset: 0x355F6, size: 0x8, addend: 0x0, symName: __ZN12PrintVisitor5visitERK3Map, symObjAddr: 0xA70, symBinAddr: 0x100011F60, symSize: 0x130 }
  - { offset: 0x3567F, size: 0x8, addend: 0x0, symName: __ZNKSt3__16vectorINS_4pairINS_10unique_ptrI3VarNS_14default_deleteIS3_EEEENS2_I4ExprNS4_IS7_EEEEEENS_9allocatorISA_EEE4sizeB8ne180100Ev, symObjAddr: 0xBA0, symBinAddr: 0x100012090, symSize: 0x20 }
  - { offset: 0x356A5, size: 0x8, addend: 0x0, symName: __ZNKSt3__16vectorINS_4pairINS_10unique_ptrI3VarNS_14default_deleteIS3_EEEENS2_I4ExprNS4_IS7_EEEEEENS_9allocatorISA_EEE5beginB8ne180100Ev, symObjAddr: 0xBC0, symBinAddr: 0x1000120B0, symSize: 0x30 }
  - { offset: 0x356CD, size: 0x8, addend: 0x0, symName: __ZNKSt3__16vectorINS_4pairINS_10unique_ptrI3VarNS_14default_deleteIS3_EEEENS2_I4ExprNS4_IS7_EEEEEENS_9allocatorISA_EEE3endB8ne180100Ev, symObjAddr: 0xBF0, symBinAddr: 0x1000120E0, symSize: 0x30 }
  - { offset: 0x356F5, size: 0x8, addend: 0x0, symName: __ZNKSt3__111__wrap_iterIPKNS_4pairINS_10unique_ptrI3VarNS_14default_deleteIS3_EEEENS2_I4ExprNS4_IS7_EEEEEEEdeB8ne180100Ev, symObjAddr: 0xC50, symBinAddr: 0x100012140, symSize: 0x20 }
  - { offset: 0x3571B, size: 0x8, addend: 0x0, symName: __ZNKSt3__110unique_ptrI3VarNS_14default_deleteIS1_EEEptB8ne180100Ev, symObjAddr: 0xC70, symBinAddr: 0x100012160, symSize: 0x20 }
  - { offset: 0x35741, size: 0x8, addend: 0x0, symName: __ZNSt3__111__wrap_iterIPKNS_4pairINS_10unique_ptrI3VarNS_14default_deleteIS3_EEEENS2_I4ExprNS4_IS7_EEEEEEEppB8ne180100Ev, symObjAddr: 0xC90, symBinAddr: 0x100012180, symSize: 0x20 }
  - { offset: 0x35767, size: 0x8, addend: 0x0, symName: __ZN12PrintVisitor5visitERK9TupleType, symObjAddr: 0xCB0, symBinAddr: 0x1000121A0, symSize: 0xF0 }
  - { offset: 0x357F0, size: 0x8, addend: 0x0, symName: __ZN12PrintVisitor5visitERK8FuncDecl, symObjAddr: 0xDA0, symBinAddr: 0x100012290, symSize: 0x200 }
  - { offset: 0x35879, size: 0x8, addend: 0x0, symName: __ZN12PrintVisitor5visitERK4Init, symObjAddr: 0xFA0, symBinAddr: 0x100012490, symSize: 0x80 }
  - { offset: 0x358AF, size: 0x8, addend: 0x0, symName: __ZNKSt3__110unique_ptrI4ExprNS_14default_deleteIS1_EEEcvbB8ne180100Ev, symObjAddr: 0x1020, symBinAddr: 0x100012510, symSize: 0x30 }
  - { offset: 0x358D5, size: 0x8, addend: 0x0, symName: __ZN12PrintVisitor5visitERK8Response, symObjAddr: 0x1050, symBinAddr: 0x100012540, symSize: 0x110 }
  - { offset: 0x3590B, size: 0x8, addend: 0x0, symName: __ZN12PrintVisitor5visitERK7APIcall, symObjAddr: 0x1160, symBinAddr: 0x100012650, symSize: 0x90 }
  - { offset: 0x35941, size: 0x8, addend: 0x0, symName: __ZNKSt3__110unique_ptrI8FuncCallNS_14default_deleteIS1_EEEcvbB8ne180100Ev, symObjAddr: 0x11F0, symBinAddr: 0x1000126E0, symSize: 0x30 }
  - { offset: 0x35967, size: 0x8, addend: 0x0, symName: __ZNKSt3__110unique_ptrI8FuncCallNS_14default_deleteIS1_EEEptB8ne180100Ev, symObjAddr: 0x1220, symBinAddr: 0x100012710, symSize: 0x20 }
  - { offset: 0x3598D, size: 0x8, addend: 0x0, symName: __ZN12PrintVisitor5visitERK3API, symObjAddr: 0x1240, symBinAddr: 0x100012730, symSize: 0xD0 }
  - { offset: 0x359C3, size: 0x8, addend: 0x0, symName: __ZNKSt3__110unique_ptrI7APIcallNS_14default_deleteIS1_EEEcvbB8ne180100Ev, symObjAddr: 0x1310, symBinAddr: 0x100012800, symSize: 0x30 }
  - { offset: 0x359E9, size: 0x8, addend: 0x0, symName: __ZNKSt3__110unique_ptrI7APIcallNS_14default_deleteIS1_EEEptB8ne180100Ev, symObjAddr: 0x1340, symBinAddr: 0x100012830, symSize: 0x20 }
  - { offset: 0x35A0F, size: 0x8, addend: 0x0, symName: __ZNK7APIcall6acceptER10ASTVisitor, symObjAddr: 0x1360, symBinAddr: 0x100012850, symSize: 0x30 }
  - { offset: 0x35A44, size: 0x8, addend: 0x0, symName: __ZN12PrintVisitor5visitERK4Spec, symObjAddr: 0x1390, symBinAddr: 0x100012880, symSize: 0x360 }
  - { offset: 0x35BD0, size: 0x8, addend: 0x0, symName: __ZNKSt3__16vectorINS_10unique_ptrI4DeclNS_14default_deleteIS2_EEEENS_9allocatorIS5_EEE5beginB8ne180100Ev, symObjAddr: 0x1710, symBinAddr: 0x100012BE0, symSize: 0x30 }
  - { offset: 0x35BF8, size: 0x8, addend: 0x0, symName: __ZNKSt3__16vectorINS_10unique_ptrI4DeclNS_14default_deleteIS2_EEEENS_9allocatorIS5_EEE3endB8ne180100Ev, symObjAddr: 0x1740, symBinAddr: 0x100012C10, symSize: 0x30 }
  - { offset: 0x35C20, size: 0x8, addend: 0x0, symName: __ZNKSt3__111__wrap_iterIPKNS_10unique_ptrI4DeclNS_14default_deleteIS2_EEEEEdeB8ne180100Ev, symObjAddr: 0x17A0, symBinAddr: 0x100012C70, symSize: 0x20 }
  - { offset: 0x35C46, size: 0x8, addend: 0x0, symName: __ZNKSt3__110unique_ptrI4DeclNS_14default_deleteIS1_EEEptB8ne180100Ev, symObjAddr: 0x17C0, symBinAddr: 0x100012C90, symSize: 0x20 }
  - { offset: 0x35C6C, size: 0x8, addend: 0x0, symName: __ZNSt3__111__wrap_iterIPKNS_10unique_ptrI4DeclNS_14default_deleteIS2_EEEEEppB8ne180100Ev, symObjAddr: 0x17E0, symBinAddr: 0x100012CB0, symSize: 0x20 }
  - { offset: 0x35C92, size: 0x8, addend: 0x0, symName: __ZNKSt3__16vectorINS_10unique_ptrI4InitNS_14default_deleteIS2_EEEENS_9allocatorIS5_EEE4sizeB8ne180100Ev, symObjAddr: 0x1800, symBinAddr: 0x100012CD0, symSize: 0x20 }
  - { offset: 0x35CB8, size: 0x8, addend: 0x0, symName: __ZNKSt3__16vectorINS_10unique_ptrI4InitNS_14default_deleteIS2_EEEENS_9allocatorIS5_EEE5beginB8ne180100Ev, symObjAddr: 0x1820, symBinAddr: 0x100012CF0, symSize: 0x30 }
  - { offset: 0x35CE0, size: 0x8, addend: 0x0, symName: __ZNKSt3__16vectorINS_10unique_ptrI4InitNS_14default_deleteIS2_EEEENS_9allocatorIS5_EEE3endB8ne180100Ev, symObjAddr: 0x1850, symBinAddr: 0x100012D20, symSize: 0x30 }
  - { offset: 0x35D08, size: 0x8, addend: 0x0, symName: __ZNKSt3__111__wrap_iterIPKNS_10unique_ptrI4InitNS_14default_deleteIS2_EEEEEdeB8ne180100Ev, symObjAddr: 0x18B0, symBinAddr: 0x100012D80, symSize: 0x20 }
  - { offset: 0x35D2E, size: 0x8, addend: 0x0, symName: __ZNKSt3__110unique_ptrI4InitNS_14default_deleteIS1_EEEptB8ne180100Ev, symObjAddr: 0x18D0, symBinAddr: 0x100012DA0, symSize: 0x20 }
  - { offset: 0x35D54, size: 0x8, addend: 0x0, symName: __ZNK4Init6acceptER10ASTVisitor, symObjAddr: 0x18F0, symBinAddr: 0x100012DC0, symSize: 0x30 }
  - { offset: 0x35D89, size: 0x8, addend: 0x0, symName: __ZNSt3__111__wrap_iterIPKNS_10unique_ptrI4InitNS_14default_deleteIS2_EEEEEppB8ne180100Ev, symObjAddr: 0x1920, symBinAddr: 0x100012DF0, symSize: 0x20 }
  - { offset: 0x35DAF, size: 0x8, addend: 0x0, symName: __ZNKSt3__16vectorINS_10unique_ptrI8FuncDeclNS_14default_deleteIS2_EEEENS_9allocatorIS5_EEE5beginB8ne180100Ev, symObjAddr: 0x1960, symBinAddr: 0x100012E10, symSize: 0x30 }
  - { offset: 0x35DD7, size: 0x8, addend: 0x0, symName: __ZNKSt3__16vectorINS_10unique_ptrI8FuncDeclNS_14default_deleteIS2_EEEENS_9allocatorIS5_EEE3endB8ne180100Ev, symObjAddr: 0x1990, symBinAddr: 0x100012E40, symSize: 0x30 }
  - { offset: 0x35DFF, size: 0x8, addend: 0x0, symName: __ZNKSt3__111__wrap_iterIPKNS_10unique_ptrI8FuncDeclNS_14default_deleteIS2_EEEEEdeB8ne180100Ev, symObjAddr: 0x19F0, symBinAddr: 0x100012EA0, symSize: 0x20 }
  - { offset: 0x35E25, size: 0x8, addend: 0x0, symName: __ZNKSt3__110unique_ptrI8FuncDeclNS_14default_deleteIS1_EEEptB8ne180100Ev, symObjAddr: 0x1A10, symBinAddr: 0x100012EC0, symSize: 0x20 }
  - { offset: 0x35E4B, size: 0x8, addend: 0x0, symName: __ZNK8FuncDecl6acceptER10ASTVisitor, symObjAddr: 0x1A30, symBinAddr: 0x100012EE0, symSize: 0x30 }
  - { offset: 0x35E7F, size: 0x8, addend: 0x0, symName: __ZNSt3__111__wrap_iterIPKNS_10unique_ptrI8FuncDeclNS_14default_deleteIS2_EEEEEppB8ne180100Ev, symObjAddr: 0x1A60, symBinAddr: 0x100012F10, symSize: 0x20 }
  - { offset: 0x35EA5, size: 0x8, addend: 0x0, symName: __ZNKSt3__16vectorINS_10unique_ptrI3APINS_14default_deleteIS2_EEEENS_9allocatorIS5_EEE5beginB8ne180100Ev, symObjAddr: 0x1AA0, symBinAddr: 0x100012F30, symSize: 0x30 }
  - { offset: 0x35ECD, size: 0x8, addend: 0x0, symName: __ZNKSt3__16vectorINS_10unique_ptrI3APINS_14default_deleteIS2_EEEENS_9allocatorIS5_EEE3endB8ne180100Ev, symObjAddr: 0x1AD0, symBinAddr: 0x100012F60, symSize: 0x30 }
  - { offset: 0x35EF5, size: 0x8, addend: 0x0, symName: __ZNKSt3__111__wrap_iterIPKNS_10unique_ptrI3APINS_14default_deleteIS2_EEEEEdeB8ne180100Ev, symObjAddr: 0x1B30, symBinAddr: 0x100012FC0, symSize: 0x20 }
  - { offset: 0x35F1B, size: 0x8, addend: 0x0, symName: __ZNKSt3__110unique_ptrI3APINS_14default_deleteIS1_EEEptB8ne180100Ev, symObjAddr: 0x1B50, symBinAddr: 0x100012FE0, symSize: 0x20 }
  - { offset: 0x35F41, size: 0x8, addend: 0x0, symName: __ZNK3API6acceptER10ASTVisitor, symObjAddr: 0x1B70, symBinAddr: 0x100013000, symSize: 0x30 }
  - { offset: 0x35F76, size: 0x8, addend: 0x0, symName: __ZNSt3__111__wrap_iterIPKNS_10unique_ptrI3APINS_14default_deleteIS2_EEEEEppB8ne180100Ev, symObjAddr: 0x1BA0, symBinAddr: 0x100013030, symSize: 0x20 }
  - { offset: 0x35F9C, size: 0x8, addend: 0x0, symName: __ZN12PrintVisitor5visitERK6Assign, symObjAddr: 0x1BC0, symBinAddr: 0x100013050, symSize: 0x80 }
  - { offset: 0x35FD2, size: 0x8, addend: 0x0, symName: __ZN12PrintVisitor5visitERK12FuncCallStmt, symObjAddr: 0x1C40, symBinAddr: 0x1000130D0, symSize: 0x70 }
  - { offset: 0x36008, size: 0x8, addend: 0x0, symName: __ZN12PrintVisitor5visitERK7Program, symObjAddr: 0x1CB0, symBinAddr: 0x100013140, symSize: 0xD0 }
  - { offset: 0x36091, size: 0x8, addend: 0x0, symName: __ZNKSt3__16vectorINS_10unique_ptrI4StmtNS_14default_deleteIS2_EEEENS_9allocatorIS5_EEE4sizeB8ne180100Ev, symObjAddr: 0x1D80, symBinAddr: 0x100013210, symSize: 0x20 }
  - { offset: 0x360B7, size: 0x8, addend: 0x0, symName: __ZNKSt3__16vectorINS_10unique_ptrI4StmtNS_14default_deleteIS2_EEEENS_9allocatorIS5_EEE5beginB8ne180100Ev, symObjAddr: 0x1DA0, symBinAddr: 0x100013230, symSize: 0x30 }
  - { offset: 0x360DF, size: 0x8, addend: 0x0, symName: __ZNKSt3__16vectorINS_10unique_ptrI4StmtNS_14default_deleteIS2_EEEENS_9allocatorIS5_EEE3endB8ne180100Ev, symObjAddr: 0x1DD0, symBinAddr: 0x100013260, symSize: 0x30 }
  - { offset: 0x36107, size: 0x8, addend: 0x0, symName: __ZNKSt3__111__wrap_iterIPKNS_10unique_ptrI4StmtNS_14default_deleteIS2_EEEEEdeB8ne180100Ev, symObjAddr: 0x1E30, symBinAddr: 0x1000132C0, symSize: 0x20 }
  - { offset: 0x3612D, size: 0x8, addend: 0x0, symName: __ZNKSt3__110unique_ptrI4StmtNS_14default_deleteIS1_EEEptB8ne180100Ev, symObjAddr: 0x1E50, symBinAddr: 0x1000132E0, symSize: 0x20 }
  - { offset: 0x36153, size: 0x8, addend: 0x0, symName: __ZNSt3__111__wrap_iterIPKNS_10unique_ptrI4StmtNS_14default_deleteIS2_EEEEEppB8ne180100Ev, symObjAddr: 0x1E70, symBinAddr: 0x100013300, symSize: 0x20 }
  - { offset: 0x36179, size: 0x8, addend: 0x0, symName: __ZN12PrintVisitorD1Ev, symObjAddr: 0x1E90, symBinAddr: 0x100013320, symSize: 0x20 }
  - { offset: 0x361A5, size: 0x8, addend: 0x0, symName: __ZN12PrintVisitorD0Ev, symObjAddr: 0x1EB0, symBinAddr: 0x100013340, symSize: 0x30 }
  - { offset: 0x361D1, size: 0x8, addend: 0x0, symName: __ZNKSt3__111__wrap_iterIPKNS_10unique_ptrI8TypeExprNS_14default_deleteIS2_EEEEE4baseB8ne180100Ev, symObjAddr: 0x1F20, symBinAddr: 0x1000133B0, symSize: 0x20 }
  - { offset: 0x361F7, size: 0x8, addend: 0x0, symName: __ZNKSt3__111__wrap_iterIPKNS_10unique_ptrI4ExprNS_14default_deleteIS2_EEEEE4baseB8ne180100Ev, symObjAddr: 0x1F80, symBinAddr: 0x100013410, symSize: 0x20 }
  - { offset: 0x3621D, size: 0x8, addend: 0x0, symName: __ZNKSt3__111__wrap_iterIPKNS_4pairINS_10unique_ptrI3VarNS_14default_deleteIS3_EEEENS2_I4ExprNS4_IS7_EEEEEEE4baseB8ne180100Ev, symObjAddr: 0x1FE0, symBinAddr: 0x100013470, symSize: 0x20 }
  - { offset: 0x36243, size: 0x8, addend: 0x0, symName: __ZNKSt3__111__wrap_iterIPKNS_10unique_ptrI4DeclNS_14default_deleteIS2_EEEEE4baseB8ne180100Ev, symObjAddr: 0x2040, symBinAddr: 0x1000134D0, symSize: 0x20 }
  - { offset: 0x36269, size: 0x8, addend: 0x0, symName: __ZNKSt3__111__wrap_iterIPKNS_10unique_ptrI4InitNS_14default_deleteIS2_EEEEE4baseB8ne180100Ev, symObjAddr: 0x20A0, symBinAddr: 0x100013530, symSize: 0x20 }
  - { offset: 0x3628F, size: 0x8, addend: 0x0, symName: __ZNKSt3__111__wrap_iterIPKNS_10unique_ptrI8FuncDeclNS_14default_deleteIS2_EEEEE4baseB8ne180100Ev, symObjAddr: 0x2100, symBinAddr: 0x100013590, symSize: 0x20 }
  - { offset: 0x362B5, size: 0x8, addend: 0x0, symName: __ZNKSt3__111__wrap_iterIPKNS_10unique_ptrI3APINS_14default_deleteIS2_EEEEE4baseB8ne180100Ev, symObjAddr: 0x2160, symBinAddr: 0x1000135F0, symSize: 0x20 }
  - { offset: 0x362DB, size: 0x8, addend: 0x0, symName: __ZNKSt3__111__wrap_iterIPKNS_10unique_ptrI4StmtNS_14default_deleteIS2_EEEEE4baseB8ne180100Ev, symObjAddr: 0x21C0, symBinAddr: 0x100013650, symSize: 0x20 }
  - { offset: 0x36301, size: 0x8, addend: 0x0, symName: __ZN12PrintVisitorD2Ev, symObjAddr: 0x21E0, symBinAddr: 0x100013670, symSize: 0x20 }
  - { offset: 0x3632D, size: 0x8, addend: 0x0, symName: __ZN10ASTVisitorD2Ev, symObjAddr: 0x2200, symBinAddr: 0x100013690, symSize: 0x10 }
  - { offset: 0x36357, size: 0x8, addend: 0x0, symName: __ZNKSt3__16vectorINS_10unique_ptrI8TypeExprNS_14default_deleteIS2_EEEENS_9allocatorIS5_EEE11__make_iterB8ne180100EPKS5_, symObjAddr: 0x2210, symBinAddr: 0x1000136A0, symSize: 0x30 }
  - { offset: 0x3638C, size: 0x8, addend: 0x0, symName: __ZNSt3__111__wrap_iterIPKNS_10unique_ptrI8TypeExprNS_14default_deleteIS2_EEEEEC1B8ne180100ES7_, symObjAddr: 0x2240, symBinAddr: 0x1000136D0, symSize: 0x30 }
  - { offset: 0x363C4, size: 0x8, addend: 0x0, symName: __ZNSt3__111__wrap_iterIPKNS_10unique_ptrI8TypeExprNS_14default_deleteIS2_EEEEEC2B8ne180100ES7_, symObjAddr: 0x2270, symBinAddr: 0x100013700, symSize: 0x20 }
  - { offset: 0x363FC, size: 0x8, addend: 0x0, symName: __ZNKSt3__117__compressed_pairIP8TypeExprNS_14default_deleteIS1_EEE5firstB8ne180100Ev, symObjAddr: 0x2290, symBinAddr: 0x100013720, symSize: 0x20 }
  - { offset: 0x36422, size: 0x8, addend: 0x0, symName: __ZNKSt3__122__compressed_pair_elemIP8TypeExprLi0ELb0EE5__getB8ne180100Ev, symObjAddr: 0x22B0, symBinAddr: 0x100013740, symSize: 0x10 }
  - { offset: 0x36466, size: 0x8, addend: 0x0, symName: __ZNKSt3__16vectorINS_10unique_ptrI4ExprNS_14default_deleteIS2_EEEENS_9allocatorIS5_EEE11__make_iterB8ne180100EPKS5_, symObjAddr: 0x2DE0, symBinAddr: 0x100013750, symSize: 0x30 }
  - { offset: 0x3649B, size: 0x8, addend: 0x0, symName: __ZNSt3__111__wrap_iterIPKNS_10unique_ptrI4ExprNS_14default_deleteIS2_EEEEEC1B8ne180100ES7_, symObjAddr: 0x2E10, symBinAddr: 0x100013780, symSize: 0x30 }
  - { offset: 0x364D3, size: 0x8, addend: 0x0, symName: __ZNSt3__111__wrap_iterIPKNS_10unique_ptrI4ExprNS_14default_deleteIS2_EEEEEC2B8ne180100ES7_, symObjAddr: 0x2E40, symBinAddr: 0x1000137B0, symSize: 0x20 }
  - { offset: 0x3650B, size: 0x8, addend: 0x0, symName: __ZNKSt3__117__compressed_pairIP4ExprNS_14default_deleteIS1_EEE5firstB8ne180100Ev, symObjAddr: 0x2E60, symBinAddr: 0x1000137D0, symSize: 0x20 }
  - { offset: 0x36531, size: 0x8, addend: 0x0, symName: __ZNKSt3__122__compressed_pair_elemIP4ExprLi0ELb0EE5__getB8ne180100Ev, symObjAddr: 0x2E80, symBinAddr: 0x1000137F0, symSize: 0x10 }
  - { offset: 0x36557, size: 0x8, addend: 0x0, symName: __ZNKSt3__16vectorINS_4pairINS_10unique_ptrI3VarNS_14default_deleteIS3_EEEENS2_I4ExprNS4_IS7_EEEEEENS_9allocatorISA_EEE11__make_iterB8ne180100EPKSA_, symObjAddr: 0x2E90, symBinAddr: 0x100013800, symSize: 0x30 }
  - { offset: 0x3658C, size: 0x8, addend: 0x0, symName: __ZNSt3__111__wrap_iterIPKNS_4pairINS_10unique_ptrI3VarNS_14default_deleteIS3_EEEENS2_I4ExprNS4_IS7_EEEEEEEC1B8ne180100ESC_, symObjAddr: 0x2EC0, symBinAddr: 0x100013830, symSize: 0x30 }
  - { offset: 0x365C4, size: 0x8, addend: 0x0, symName: __ZNSt3__111__wrap_iterIPKNS_4pairINS_10unique_ptrI3VarNS_14default_deleteIS3_EEEENS2_I4ExprNS4_IS7_EEEEEEEC2B8ne180100ESC_, symObjAddr: 0x2EF0, symBinAddr: 0x100013860, symSize: 0x20 }
  - { offset: 0x365FC, size: 0x8, addend: 0x0, symName: __ZNKSt3__117__compressed_pairIP3VarNS_14default_deleteIS1_EEE5firstB8ne180100Ev, symObjAddr: 0x2F10, symBinAddr: 0x100013880, symSize: 0x20 }
  - { offset: 0x36622, size: 0x8, addend: 0x0, symName: __ZNKSt3__122__compressed_pair_elemIP3VarLi0ELb0EE5__getB8ne180100Ev, symObjAddr: 0x2F30, symBinAddr: 0x1000138A0, symSize: 0x10 }
  - { offset: 0x36648, size: 0x8, addend: 0x0, symName: __ZNKSt3__117__compressed_pairIP8FuncCallNS_14default_deleteIS1_EEE5firstB8ne180100Ev, symObjAddr: 0x2F40, symBinAddr: 0x1000138B0, symSize: 0x20 }
  - { offset: 0x3666E, size: 0x8, addend: 0x0, symName: __ZNKSt3__122__compressed_pair_elemIP8FuncCallLi0ELb0EE5__getB8ne180100Ev, symObjAddr: 0x2F60, symBinAddr: 0x1000138D0, symSize: 0x10 }
  - { offset: 0x36694, size: 0x8, addend: 0x0, symName: __ZNKSt3__117__compressed_pairIP7APIcallNS_14default_deleteIS1_EEE5firstB8ne180100Ev, symObjAddr: 0x2F70, symBinAddr: 0x1000138E0, symSize: 0x20 }
  - { offset: 0x366BA, size: 0x8, addend: 0x0, symName: __ZNKSt3__122__compressed_pair_elemIP7APIcallLi0ELb0EE5__getB8ne180100Ev, symObjAddr: 0x2F90, symBinAddr: 0x100013900, symSize: 0x10 }
  - { offset: 0x366E0, size: 0x8, addend: 0x0, symName: __ZNKSt3__16vectorINS_10unique_ptrI4DeclNS_14default_deleteIS2_EEEENS_9allocatorIS5_EEE11__make_iterB8ne180100EPKS5_, symObjAddr: 0x2FA0, symBinAddr: 0x100013910, symSize: 0x30 }
  - { offset: 0x36715, size: 0x8, addend: 0x0, symName: __ZNSt3__111__wrap_iterIPKNS_10unique_ptrI4DeclNS_14default_deleteIS2_EEEEEC1B8ne180100ES7_, symObjAddr: 0x2FD0, symBinAddr: 0x100013940, symSize: 0x30 }
  - { offset: 0x3674D, size: 0x8, addend: 0x0, symName: __ZNSt3__111__wrap_iterIPKNS_10unique_ptrI4DeclNS_14default_deleteIS2_EEEEEC2B8ne180100ES7_, symObjAddr: 0x3000, symBinAddr: 0x100013970, symSize: 0x20 }
  - { offset: 0x36785, size: 0x8, addend: 0x0, symName: __ZNKSt3__117__compressed_pairIP4DeclNS_14default_deleteIS1_EEE5firstB8ne180100Ev, symObjAddr: 0x3020, symBinAddr: 0x100013990, symSize: 0x20 }
  - { offset: 0x367AB, size: 0x8, addend: 0x0, symName: __ZNKSt3__122__compressed_pair_elemIP4DeclLi0ELb0EE5__getB8ne180100Ev, symObjAddr: 0x3040, symBinAddr: 0x1000139B0, symSize: 0x10 }
  - { offset: 0x367D1, size: 0x8, addend: 0x0, symName: __ZNKSt3__16vectorINS_10unique_ptrI4InitNS_14default_deleteIS2_EEEENS_9allocatorIS5_EEE11__make_iterB8ne180100EPKS5_, symObjAddr: 0x3050, symBinAddr: 0x1000139C0, symSize: 0x30 }
  - { offset: 0x36806, size: 0x8, addend: 0x0, symName: __ZNSt3__111__wrap_iterIPKNS_10unique_ptrI4InitNS_14default_deleteIS2_EEEEEC1B8ne180100ES7_, symObjAddr: 0x3080, symBinAddr: 0x1000139F0, symSize: 0x30 }
  - { offset: 0x3683E, size: 0x8, addend: 0x0, symName: __ZNSt3__111__wrap_iterIPKNS_10unique_ptrI4InitNS_14default_deleteIS2_EEEEEC2B8ne180100ES7_, symObjAddr: 0x30B0, symBinAddr: 0x100013A20, symSize: 0x20 }
  - { offset: 0x36876, size: 0x8, addend: 0x0, symName: __ZNKSt3__117__compressed_pairIP4InitNS_14default_deleteIS1_EEE5firstB8ne180100Ev, symObjAddr: 0x30D0, symBinAddr: 0x100013A40, symSize: 0x20 }
  - { offset: 0x3689C, size: 0x8, addend: 0x0, symName: __ZNKSt3__122__compressed_pair_elemIP4InitLi0ELb0EE5__getB8ne180100Ev, symObjAddr: 0x30F0, symBinAddr: 0x100013A60, symSize: 0x10 }
  - { offset: 0x368C2, size: 0x8, addend: 0x0, symName: __ZNKSt3__16vectorINS_10unique_ptrI8FuncDeclNS_14default_deleteIS2_EEEENS_9allocatorIS5_EEE11__make_iterB8ne180100EPKS5_, symObjAddr: 0x3100, symBinAddr: 0x100013A70, symSize: 0x30 }
  - { offset: 0x368F7, size: 0x8, addend: 0x0, symName: __ZNSt3__111__wrap_iterIPKNS_10unique_ptrI8FuncDeclNS_14default_deleteIS2_EEEEEC1B8ne180100ES7_, symObjAddr: 0x3130, symBinAddr: 0x100013AA0, symSize: 0x30 }
  - { offset: 0x3692F, size: 0x8, addend: 0x0, symName: __ZNSt3__111__wrap_iterIPKNS_10unique_ptrI8FuncDeclNS_14default_deleteIS2_EEEEEC2B8ne180100ES7_, symObjAddr: 0x3160, symBinAddr: 0x100013AD0, symSize: 0x20 }
  - { offset: 0x36967, size: 0x8, addend: 0x0, symName: __ZNKSt3__117__compressed_pairIP8FuncDeclNS_14default_deleteIS1_EEE5firstB8ne180100Ev, symObjAddr: 0x3180, symBinAddr: 0x100013AF0, symSize: 0x20 }
  - { offset: 0x3698D, size: 0x8, addend: 0x0, symName: __ZNKSt3__122__compressed_pair_elemIP8FuncDeclLi0ELb0EE5__getB8ne180100Ev, symObjAddr: 0x31A0, symBinAddr: 0x100013B10, symSize: 0x10 }
  - { offset: 0x369B3, size: 0x8, addend: 0x0, symName: __ZNKSt3__16vectorINS_10unique_ptrI3APINS_14default_deleteIS2_EEEENS_9allocatorIS5_EEE11__make_iterB8ne180100EPKS5_, symObjAddr: 0x31B0, symBinAddr: 0x100013B20, symSize: 0x30 }
  - { offset: 0x369E8, size: 0x8, addend: 0x0, symName: __ZNSt3__111__wrap_iterIPKNS_10unique_ptrI3APINS_14default_deleteIS2_EEEEEC1B8ne180100ES7_, symObjAddr: 0x31E0, symBinAddr: 0x100013B50, symSize: 0x30 }
  - { offset: 0x36A20, size: 0x8, addend: 0x0, symName: __ZNSt3__111__wrap_iterIPKNS_10unique_ptrI3APINS_14default_deleteIS2_EEEEEC2B8ne180100ES7_, symObjAddr: 0x3210, symBinAddr: 0x100013B80, symSize: 0x20 }
  - { offset: 0x36A58, size: 0x8, addend: 0x0, symName: __ZNKSt3__117__compressed_pairIP3APINS_14default_deleteIS1_EEE5firstB8ne180100Ev, symObjAddr: 0x3230, symBinAddr: 0x100013BA0, symSize: 0x20 }
  - { offset: 0x36A7E, size: 0x8, addend: 0x0, symName: __ZNKSt3__122__compressed_pair_elemIP3APILi0ELb0EE5__getB8ne180100Ev, symObjAddr: 0x3250, symBinAddr: 0x100013BC0, symSize: 0x10 }
  - { offset: 0x36AA4, size: 0x8, addend: 0x0, symName: __ZNKSt3__16vectorINS_10unique_ptrI4StmtNS_14default_deleteIS2_EEEENS_9allocatorIS5_EEE11__make_iterB8ne180100EPKS5_, symObjAddr: 0x3260, symBinAddr: 0x100013BD0, symSize: 0x30 }
  - { offset: 0x36AD9, size: 0x8, addend: 0x0, symName: __ZNSt3__111__wrap_iterIPKNS_10unique_ptrI4StmtNS_14default_deleteIS2_EEEEEC1B8ne180100ES7_, symObjAddr: 0x3290, symBinAddr: 0x100013C00, symSize: 0x30 }
  - { offset: 0x36B11, size: 0x8, addend: 0x0, symName: __ZNSt3__111__wrap_iterIPKNS_10unique_ptrI4StmtNS_14default_deleteIS2_EEEEEC2B8ne180100ES7_, symObjAddr: 0x32C0, symBinAddr: 0x100013C30, symSize: 0x20 }
  - { offset: 0x36B49, size: 0x8, addend: 0x0, symName: __ZNKSt3__117__compressed_pairIP4StmtNS_14default_deleteIS1_EEE5firstB8ne180100Ev, symObjAddr: 0x32E0, symBinAddr: 0x100013C50, symSize: 0x20 }
  - { offset: 0x36B6F, size: 0x8, addend: 0x0, symName: __ZNKSt3__122__compressed_pair_elemIP4StmtLi0ELb0EE5__getB8ne180100Ev, symObjAddr: 0x3300, symBinAddr: 0x100013C70, symSize: 0xE }
  - { offset: 0x40565, size: 0x8, addend: 0x0, symName: _main, symObjAddr: 0x0, symBinAddr: 0x100013C80, symSize: 0x1D0 }
  - { offset: 0x415A0, size: 0x8, addend: 0x0, symName: __ZN12PrintVisitorC1Ev, symObjAddr: 0x280, symBinAddr: 0x100013E50, symSize: 0x20 }
  - { offset: 0x415CC, size: 0x8, addend: 0x0, symName: __ZNK4Spec6acceptER10ASTVisitor, symObjAddr: 0x2A0, symBinAddr: 0x100013E70, symSize: 0x30 }
  - { offset: 0x41601, size: 0x8, addend: 0x0, symName: __ZN12PrintVisitorC2Ev, symObjAddr: 0x2F0, symBinAddr: 0x100013EA0, symSize: 0x40 }
  - { offset: 0x4162D, size: 0x8, addend: 0x0, symName: __ZN10ASTVisitorC2Ev, symObjAddr: 0x330, symBinAddr: 0x100013EE0, symSize: 0x20 }
  - { offset: 0x41659, size: 0x8, addend: 0x0, symName: __ZN10ASTVisitorD1Ev, symObjAddr: 0x350, symBinAddr: 0x100013F00, symSize: 0x10 }
  - { offset: 0x41683, size: 0x8, addend: 0x0, symName: __ZN10ASTVisitorD0Ev, symObjAddr: 0x360, symBinAddr: 0x100013F10, symSize: 0x10 }
...
